	.arch armv8-a+crc
	.text
	.align	2
	.p2align 4,,15
	.global	ntt512x3_bit_perm
	.type	ntt512x3_bit_perm, %function
ntt512x3_bit_perm:
.LFB3825:
	.cfi_startproc
	stp	x29, x30, [sp, -64]!
	.cfi_def_cfa_offset 64
	.cfi_offset 29, -64
	.cfi_offset 30, -56
	mov	x29, sp
	ldr	w5, [x0, 3072]
	stp	x19, x20, [sp, 16]
	.cfi_offset 19, -48
	.cfi_offset 20, -40
	ldr	w20, [x0, 3076]
	stp	x21, x22, [sp, 32]
	.cfi_offset 21, -32
	.cfi_offset 22, -24
	ldp	w1, w21, [x0, 12]
	stp	w5, w20, [x0, 12]
	ldr	w20, [x0, 3080]
	stp	x23, x24, [sp, 48]
	.cfi_offset 23, -16
	.cfi_offset 24, -8
	ldr	w16, [x0, 1536]
	str	w21, [x0, 3076]
	ldr	w21, [x0, 20]
	str	w20, [x0, 20]
	ldr	w20, [x0, 24]
	str	w16, [x0, 24]
	ldr	w16, [x0, 28]
	str	w1, [x0, 3072]
	mov	x1, 5120
	str	w21, [x0, 3080]
	add	x1, x0, x1
	str	w20, [x0, 1536]
	ldr	w20, [x0, 1540]
	str	w16, [x0, 1540]
	ldr	w16, [x0, 32]
	str	w20, [x0, 28]
	ldr	w20, [x0, 1544]
	str	w16, [x0, 1544]
	str	w20, [x0, 32]
	ldr	w2, [x0, 4608]
	ldr	w23, [x0, 4612]
	ldp	w20, w24, [x0, 36]
	ldr	w19, [x0, 768]
	stp	w2, w23, [x0, 36]
	add	x2, x0, 4096
	ldr	w23, [x0, 4616]
	str	w24, [x0, 4612]
	ldr	w24, [x0, 44]
	str	w20, [x0, 4608]
	ldr	w14, [x0, 3840]
	str	w23, [x0, 44]
	ldr	w23, [x0, 48]
	str	w19, [x0, 48]
	ldr	w19, [x0, 772]
	str	w24, [x0, 4616]
	str	w23, [x0, 768]
	ldr	w23, [x0, 52]
	str	w19, [x0, 52]
	ldr	w19, [x0, 776]
	str	w23, [x0, 772]
	ldr	w23, [x0, 56]
	str	w19, [x0, 56]
	ldr	w19, [x0, 60]
	str	w14, [x0, 60]
	ldr	w14, [x0, 3844]
	str	w23, [x0, 776]
	str	w19, [x0, 3840]
	ldr	w19, [x0, 64]
	str	w19, [x0, 3844]
	ldr	w19, [x0, 68]
	str	w14, [x0, 64]
	ldr	w24, [x0, 76]
	ldr	w23, [x0, 2308]
	ldr	w14, [x0, 3848]
	str	w24, [x0, 2308]
	ldr	w3, [x0, 2304]
	str	w23, [x0, 76]
	ldr	w24, [x0, 80]
	str	w14, [x0, 68]
	ldr	w23, [x0, 2312]
	str	w19, [x0, 3848]
	ldr	w14, [x0, 72]
	str	w3, [x0, 72]
	ldr	w22, [x0, 84]
	str	w23, [x0, 80]
	str	w24, [x0, 2312]
	str	w14, [x0, 2304]
	ldr	w18, [x1, 256]
	str	w22, [x1, 256]
	ldr	w22, [x0, 88]
	str	w18, [x0, 84]
	ldr	w18, [x1, 260]
	str	w22, [x1, 260]
	ldr	w22, [x0, 92]
	str	w18, [x0, 88]
	ldr	w18, [x1, 264]
	str	w22, [x1, 264]
	ldr	w22, [x0, 96]
	str	w18, [x0, 92]
	ldr	w18, [x0, 384]
	str	w22, [x0, 384]
	ldr	w22, [x0, 100]
	str	w18, [x0, 96]
	ldr	w18, [x0, 388]
	str	w22, [x0, 388]
	ldr	w22, [x0, 104]
	ldr	w15, [x0, 1920]
	str	w18, [x0, 100]
	ldr	w18, [x0, 392]
	str	w22, [x0, 392]
	ldr	w22, [x0, 3456]
	str	w18, [x0, 104]
	ldr	w18, [x0, 108]
	str	w22, [x0, 108]
	ldr	w22, [x0, 3460]
	str	w18, [x0, 3456]
	ldr	w18, [x0, 112]
	str	w22, [x0, 112]
	ldr	w22, [x0, 3464]
	str	w18, [x0, 3460]
	ldr	w18, [x0, 116]
	str	w22, [x0, 116]
	ldr	w22, [x0, 120]
	str	w15, [x0, 120]
	ldr	w15, [x0, 1924]
	str	w18, [x0, 3464]
	str	w22, [x0, 1920]
	ldr	w22, [x0, 124]
	str	w15, [x0, 124]
	ldr	w15, [x0, 1928]
	str	w22, [x0, 1924]
	ldr	w22, [x0, 128]
	str	w15, [x0, 128]
	str	w22, [x0, 1928]
	ldr	w22, [x0, 132]
	ldr	w15, [x0, 4992]
	ldr	w23, [x0, 4996]
	str	w22, [x0, 4992]
	ldr	w24, [x0, 136]
	ldr	w21, [x0, 1152]
	stp	w15, w23, [x0, 132]
	ldr	w23, [x0, 5000]
	str	w24, [x0, 4996]
	ldr	w24, [x0, 140]
	ldr	w16, [x0, 156]
	str	w23, [x0, 140]
	ldr	w23, [x0, 144]
	str	w21, [x0, 144]
	ldr	w21, [x0, 1156]
	str	w24, [x0, 5000]
	ldr	w13, [x0, 4224]
	str	w23, [x0, 1152]
	ldr	w23, [x0, 148]
	str	w21, [x0, 148]
	ldr	w21, [x0, 1160]
	str	w16, [x0, 4224]
	ldr	w16, [x0, 160]
	str	w23, [x0, 1156]
	ldr	w23, [x0, 152]
	str	w21, [x0, 152]
	str	w13, [x0, 156]
	str	w23, [x0, 1160]
	ldr	w13, [x2, 132]
	str	w16, [x2, 132]
	ldr	w16, [x0, 164]
	str	w13, [x0, 160]
	ldr	w13, [x2, 136]
	str	w16, [x2, 136]
	ldr	w23, [x0, 2692]
	ldr	w24, [x0, 172]
	str	w13, [x0, 164]
	ldr	w20, [x0, 180]
	str	w23, [x0, 172]
	ldr	w23, [x0, 2696]
	str	w24, [x0, 2692]
	ldr	w24, [x0, 176]
	ldr	w11, [x0, 2688]
	str	w23, [x0, 176]
	ldr	w23, [x0, 5764]
	str	w24, [x0, 2696]
	ldr	w24, [x0, 184]
	ldr	w7, [x0, 5760]
	str	w23, [x0, 184]
	ldr	w23, [x0, 5768]
	str	w24, [x0, 5764]
	ldr	w13, [x0, 168]
	str	w11, [x0, 168]
	ldr	w24, [x0, 188]
	str	w23, [x0, 188]
	ldr	w19, [x0, 3264]
	str	w7, [x0, 180]
	ldr	w23, [x0, 204]
	str	w13, [x0, 2688]
	str	w20, [x0, 5760]
	str	w19, [x0, 204]
	str	w24, [x0, 5768]
	str	w23, [x0, 3264]
	ldr	w23, [x0, 208]
	ldr	w19, [x0, 3268]
	ldr	w14, [x0, 216]
	str	w23, [x0, 3268]
	ldr	w23, [x0, 212]
	str	w19, [x0, 208]
	ldr	w19, [x0, 3272]
	ldr	w24, [x0, 232]
	str	w23, [x0, 3272]
	ldr	w23, [x0, 4804]
	str	w19, [x0, 212]
	ldr	w19, [x0, 1728]
	str	w14, [x0, 1728]
	ldr	w14, [x0, 1732]
	str	w23, [x0, 232]
	ldr	w9, [x0, 4800]
	str	w19, [x0, 216]
	ldr	w19, [x0, 220]
	str	w14, [x0, 220]
	ldr	w23, [x0, 4808]
	str	w24, [x0, 4804]
	ldr	w14, [x0, 1736]
	str	w19, [x0, 1732]
	ldr	w19, [x0, 224]
	ldr	w24, [x0, 236]
	str	w14, [x0, 224]
	str	w23, [x0, 236]
	str	w19, [x0, 1736]
	ldr	w19, [x0, 228]
	str	w9, [x0, 228]
	ldr	w23, [x0, 240]
	str	w24, [x0, 4808]
	str	w19, [x0, 4800]
	ldr	w12, [x0, 960]
	str	w23, [x0, 960]
	ldp	w24, w18, [x0, 248]
	ldr	w17, [x0, 4032]
	str	w12, [x0, 240]
	ldr	w23, [x0, 244]
	str	w18, [x0, 4032]
	ldr	w18, [x0, 256]
	str	w17, [x0, 252]
	ldr	w17, [x0, 4036]
	ldr	w12, [x0, 964]
	str	w18, [x0, 4036]
	ldr	w18, [x0, 260]
	str	w17, [x0, 256]
	ldr	w17, [x0, 4040]
	str	w23, [x0, 964]
	ldr	w23, [x0, 968]
	str	w18, [x0, 4040]
	ldr	w18, [x0, 264]
	str	w17, [x0, 260]
	ldr	w17, [x0, 2496]
	str	w12, [x0, 244]
	str	w23, [x0, 248]
	str	w18, [x0, 2496]
	ldr	w18, [x0, 268]
	str	w17, [x0, 264]
	ldr	w17, [x0, 2500]
	str	w24, [x0, 968]
	str	w18, [x0, 2500]
	ldr	w18, [x0, 272]
	str	w17, [x0, 268]
	ldr	w17, [x0, 2504]
	str	w18, [x0, 2504]
	str	w17, [x0, 272]
	ldr	w17, [x0, 276]
	ldr	w10, [x1, 448]
	str	w17, [x1, 448]
	ldr	w24, [x0, 280]
	str	w10, [x0, 276]
	ldr	w23, [x1, 452]
	str	w24, [x1, 452]
	ldr	w24, [x0, 284]
	str	w23, [x0, 280]
	ldr	w23, [x1, 456]
	str	w24, [x1, 456]
	ldr	w22, [x0, 288]
	str	w23, [x0, 284]
	ldr	w21, [x0, 576]
	str	w22, [x0, 576]
	ldr	w22, [x0, 292]
	str	w21, [x0, 288]
	ldr	w21, [x0, 580]
	str	w22, [x0, 580]
	ldr	w22, [x0, 296]
	str	w21, [x0, 292]
	ldr	w21, [x0, 584]
	str	w22, [x0, 584]
	ldr	w22, [x0, 300]
	str	w21, [x0, 296]
	ldr	w21, [x0, 3648]
	str	w22, [x0, 3648]
	ldr	w22, [x0, 304]
	str	w21, [x0, 300]
	ldr	w21, [x0, 3652]
	ldr	w20, [x0, 324]
	str	w22, [x0, 3652]
	ldr	w22, [x0, 308]
	str	w21, [x0, 304]
	ldr	w21, [x0, 3656]
	str	w22, [x0, 3656]
	ldr	w22, [x0, 2112]
	str	w21, [x0, 308]
	ldr	w21, [x0, 312]
	str	w22, [x0, 312]
	ldr	w22, [x0, 2116]
	str	w21, [x0, 2112]
	ldr	w21, [x0, 316]
	str	w22, [x0, 316]
	ldr	w22, [x0, 2120]
	str	w21, [x0, 2116]
	ldr	w21, [x0, 320]
	str	w22, [x0, 320]
	str	w21, [x0, 2120]
	ldr	w7, [x1, 64]
	str	w20, [x1, 64]
	str	w7, [x0, 324]
	ldr	w7, [x0, 328]
	ldr	w20, [x1, 68]
	str	w7, [x1, 68]
	ldr	w7, [x0, 332]
	str	w20, [x0, 328]
	ldr	w20, [x1, 72]
	str	w7, [x1, 72]
	ldr	w4, [x0, 336]
	str	w20, [x0, 332]
	ldr	w3, [x0, 1344]
	ldr	w14, [x0, 4416]
	str	w4, [x0, 1344]
	ldr	w23, [x0, 1352]
	str	w3, [x0, 336]
	ldr	w19, [x0, 348]
	str	w14, [x0, 348]
	ldr	w24, [x0, 344]
	str	w23, [x0, 344]
	ldr	w4, [x0, 340]
	str	w19, [x0, 4416]
	ldr	w3, [x0, 1348]
	str	w24, [x0, 1352]
	ldr	w14, [x0, 352]
	str	w4, [x0, 1348]
	str	w3, [x0, 340]
	ldr	w19, [x2, 324]
	str	w14, [x2, 324]
	ldr	w14, [x0, 356]
	str	w19, [x0, 352]
	ldr	w19, [x2, 328]
	str	w14, [x2, 328]
	ldr	w12, [x0, 2880]
	str	w19, [x0, 356]
	ldr	w19, [x0, 360]
	str	w12, [x0, 360]
	ldr	w12, [x0, 2884]
	str	w19, [x0, 2880]
	ldr	w19, [x0, 364]
	str	w12, [x0, 364]
	str	w19, [x0, 2884]
	ldr	w19, [x0, 368]
	ldr	w12, [x0, 2888]
	ldr	w23, [x0, 5956]
	str	w19, [x0, 2888]
	ldr	w24, [x0, 376]
	str	w12, [x0, 368]
	ldr	w18, [x0, 3168]
	str	w23, [x0, 376]
	ldr	w23, [x0, 5960]
	str	w24, [x0, 5956]
	ldr	w24, [x0, 380]
	ldr	w17, [x0, 408]
	str	w23, [x0, 380]
	ldr	w23, [x0, 396]
	str	w18, [x0, 396]
	ldr	w18, [x0, 3172]
	str	w24, [x0, 5960]
	ldr	w19, [x0, 372]
	str	w23, [x0, 3168]
	ldr	w23, [x0, 400]
	str	w18, [x0, 400]
	ldr	w12, [x0, 5952]
	str	w19, [x0, 5952]
	ldr	w18, [x0, 3176]
	str	w23, [x0, 3172]
	ldr	w15, [x0, 1632]
	str	w12, [x0, 372]
	ldr	w23, [x0, 404]
	str	w18, [x0, 404]
	str	w17, [x0, 1632]
	ldr	w17, [x0, 412]
	str	w15, [x0, 408]
	str	w23, [x0, 3176]
	ldr	w15, [x0, 1636]
	ldr	w23, [x0, 4708]
	str	w17, [x0, 1636]
	ldr	w24, [x0, 424]
	str	w15, [x0, 412]
	ldr	w16, [x0, 864]
	str	w23, [x0, 424]
	ldr	w23, [x0, 4712]
	str	w24, [x0, 4708]
	ldr	w24, [x0, 428]
	ldr	w17, [x0, 416]
	str	w23, [x0, 428]
	ldr	w23, [x0, 432]
	str	w16, [x0, 432]
	ldr	w15, [x0, 1640]
	str	w17, [x0, 1640]
	ldr	w16, [x0, 868]
	str	w23, [x0, 864]
	ldr	w23, [x0, 436]
	str	w15, [x0, 416]
	ldr	w17, [x0, 4704]
	str	w16, [x0, 436]
	ldr	w15, [x0, 420]
	str	w23, [x0, 868]
	ldr	w16, [x0, 872]
	str	w17, [x0, 420]
	ldr	w23, [x0, 440]
	str	w15, [x0, 4704]
	ldr	w13, [x0, 444]
	str	w16, [x0, 440]
	str	w24, [x0, 4712]
	str	w23, [x0, 872]
	ldr	w11, [x0, 3936]
	str	w13, [x0, 3936]
	ldr	w22, [x0, 456]
	ldr	w21, [x0, 2400]
	str	w11, [x0, 444]
	ldr	w23, [x0, 3944]
	str	w22, [x0, 2400]
	ldr	w22, [x0, 460]
	str	w21, [x0, 456]
	ldr	w21, [x0, 2404]
	ldr	w24, [x0, 452]
	str	w22, [x0, 2404]
	ldr	w22, [x0, 464]
	str	w21, [x0, 460]
	ldr	w13, [x0, 448]
	str	w23, [x0, 452]
	ldr	w11, [x0, 3940]
	str	w24, [x0, 3944]
	ldr	w21, [x0, 2408]
	str	w22, [x0, 2408]
	ldr	w22, [x0, 468]
	str	w11, [x0, 448]
	str	w13, [x0, 3940]
	str	w21, [x0, 464]
	ldr	w21, [x1, 352]
	str	w22, [x1, 352]
	ldr	w22, [x0, 472]
	str	w21, [x0, 468]
	ldr	w21, [x1, 356]
	str	w22, [x1, 356]
	ldr	w22, [x0, 476]
	str	w21, [x0, 472]
	ldr	w21, [x1, 360]
	str	w22, [x1, 360]
	ldr	w14, [x0, 504]
	ldr	w9, [x0, 2016]
	str	w21, [x0, 476]
	ldr	w23, [x0, 3556]
	str	w14, [x0, 2016]
	ldr	w24, [x0, 496]
	str	w9, [x0, 504]
	ldr	w14, [x0, 508]
	str	w23, [x0, 496]
	ldr	w9, [x0, 2020]
	str	w24, [x0, 3556]
	ldr	w23, [x0, 3560]
	str	w14, [x0, 2020]
	ldr	w6, [x0, 516]
	str	w9, [x0, 508]
	ldr	w3, [x0, 3552]
	ldr	w5, [x0, 5088]
	str	w6, [x0, 5088]
	ldr	w21, [x0, 492]
	str	w3, [x0, 492]
	ldr	w14, [x0, 512]
	str	w5, [x0, 516]
	ldr	w9, [x0, 2024]
	str	w21, [x0, 3552]
	ldr	w24, [x0, 500]
	str	w23, [x0, 500]
	ldr	w23, [x0, 5092]
	str	w9, [x0, 512]
	str	w14, [x0, 2024]
	str	w24, [x0, 3560]
	ldr	w24, [x0, 520]
	str	w23, [x0, 520]
	ldr	w19, [x0, 528]
	ldr	w23, [x0, 5096]
	str	w24, [x0, 5092]
	ldr	w24, [x0, 524]
	ldr	w18, [x0, 4320]
	str	w23, [x0, 524]
	ldr	w23, [x0, 1248]
	str	w19, [x0, 1248]
	ldr	w19, [x0, 1252]
	str	w24, [x0, 5096]
	str	w23, [x0, 528]
	ldr	w23, [x0, 532]
	str	w19, [x0, 532]
	ldr	w19, [x0, 1256]
	str	w23, [x0, 1252]
	ldr	w23, [x0, 536]
	str	w19, [x0, 536]
	ldr	w19, [x0, 540]
	str	w18, [x0, 540]
	str	w23, [x0, 1256]
	str	w19, [x0, 4320]
	ldr	w19, [x0, 544]
	ldr	w18, [x2, 228]
	str	w19, [x2, 228]
	ldr	w19, [x0, 548]
	str	w18, [x0, 544]
	ldr	w18, [x2, 232]
	str	w19, [x2, 232]
	str	w18, [x0, 548]
	ldr	w18, [x0, 552]
	ldr	w10, [x0, 2784]
	ldr	w23, [x0, 2792]
	str	w18, [x0, 2784]
	ldr	w24, [x0, 560]
	str	w10, [x0, 552]
	ldr	w16, [x0, 3360]
	str	w23, [x0, 560]
	ldr	w23, [x0, 5860]
	str	w24, [x0, 2792]
	ldr	w24, [x0, 568]
	ldr	w15, [x0, 5856]
	str	w23, [x0, 568]
	ldr	w23, [x0, 5864]
	str	w24, [x0, 5860]
	ldr	w24, [x0, 572]
	ldr	w17, [x0, 564]
	str	w23, [x0, 572]
	ldr	w23, [x0, 588]
	str	w16, [x0, 588]
	ldr	w18, [x0, 556]
	str	w15, [x0, 564]
	ldr	w10, [x0, 2788]
	str	w23, [x0, 3360]
	ldr	w23, [x0, 592]
	str	w18, [x0, 2788]
	ldr	w16, [x0, 3364]
	str	w10, [x0, 556]
	str	w17, [x0, 5856]
	str	w23, [x0, 3364]
	ldr	w23, [x0, 596]
	str	w16, [x0, 592]
	str	w24, [x0, 5864]
	ldr	w16, [x0, 3368]
	str	w23, [x0, 3368]
	ldr	w23, [x0, 1828]
	ldr	w24, [x0, 604]
	str	w16, [x0, 596]
	ldr	w4, [x0, 4896]
	str	w23, [x0, 604]
	ldr	w23, [x0, 1832]
	str	w24, [x0, 1828]
	ldr	w24, [x0, 608]
	ldr	w11, [x0, 1824]
	str	w23, [x0, 608]
	ldr	w23, [x0, 4900]
	str	w24, [x0, 1832]
	ldr	w24, [x0, 616]
	ldr	w7, [x0, 612]
	str	w23, [x0, 616]
	ldr	w23, [x0, 4904]
	str	w24, [x0, 4900]
	ldr	w13, [x0, 600]
	str	w11, [x0, 600]
	ldr	w24, [x0, 620]
	str	w23, [x0, 620]
	ldr	w22, [x0, 1056]
	str	w4, [x0, 612]
	ldr	w23, [x0, 624]
	str	w13, [x0, 1824]
	str	w7, [x0, 4896]
	str	w22, [x0, 624]
	str	w24, [x0, 4904]
	str	w23, [x0, 1056]
	ldr	w23, [x0, 628]
	ldr	w22, [x0, 1060]
	ldr	w21, [x0, 636]
	str	w23, [x0, 1060]
	ldr	w23, [x0, 632]
	str	w22, [x0, 628]
	ldr	w22, [x0, 1064]
	str	w23, [x0, 1064]
	str	w22, [x0, 632]
	ldr	w22, [x0, 4128]
	str	w21, [x0, 4128]
	str	w22, [x0, 636]
	ldr	w22, [x0, 640]
	ldr	w21, [x2, 36]
	str	w22, [x2, 36]
	ldr	w22, [x0, 644]
	str	w21, [x0, 640]
	ldr	w21, [x2, 40]
	str	w22, [x2, 40]
	ldr	w14, [x0, 2592]
	str	w21, [x0, 644]
	ldr	w21, [x0, 648]
	str	w14, [x0, 648]
	ldr	w14, [x0, 2596]
	str	w21, [x0, 2592]
	ldr	w21, [x0, 652]
	str	w14, [x0, 652]
	ldr	w14, [x0, 2600]
	str	w21, [x0, 2596]
	ldr	w21, [x0, 656]
	str	w14, [x0, 656]
	str	w21, [x0, 2600]
	ldr	w21, [x0, 660]
	ldr	w14, [x0, 5664]
	ldr	w23, [x0, 5668]
	str	w21, [x0, 5664]
	ldr	w24, [x0, 664]
	str	w14, [x0, 660]
	ldr	w20, [x0, 3744]
	str	w23, [x0, 664]
	ldr	w23, [x0, 5672]
	str	w24, [x0, 5668]
	ldr	w24, [x0, 668]
	ldr	w12, [x0, 2208]
	str	w23, [x0, 668]
	ldr	w23, [x0, 684]
	str	w20, [x0, 684]
	ldr	w19, [x0, 696]
	str	w12, [x0, 696]
	ldr	w20, [x0, 3748]
	str	w23, [x0, 3744]
	ldr	w23, [x0, 688]
	str	w19, [x0, 2208]
	ldr	w12, [x0, 700]
	str	w20, [x0, 688]
	ldr	w19, [x0, 2212]
	str	w23, [x0, 3748]
	ldr	w20, [x0, 3752]
	str	w12, [x0, 2212]
	ldr	w23, [x0, 692]
	str	w19, [x0, 700]
	ldr	w12, [x0, 704]
	str	w20, [x0, 692]
	str	w24, [x0, 5672]
	str	w23, [x0, 3752]
	ldr	w19, [x0, 2216]
	str	w12, [x0, 2216]
	str	w19, [x0, 704]
	ldr	w19, [x0, 708]
	ldr	w10, [x1, 160]
	str	w19, [x1, 160]
	ldr	w24, [x0, 712]
	str	w10, [x0, 708]
	ldr	w23, [x1, 164]
	str	w24, [x1, 164]
	ldr	w24, [x0, 716]
	str	w23, [x0, 712]
	ldr	w23, [x1, 168]
	str	w24, [x1, 168]
	ldr	w18, [x0, 720]
	str	w23, [x0, 716]
	ldr	w17, [x0, 1440]
	ldr	w15, [x0, 4512]
	str	w18, [x0, 1440]
	ldr	w18, [x0, 1444]
	str	w17, [x0, 720]
	ldr	w17, [x0, 724]
	ldr	w16, [x0, 732]
	str	w18, [x0, 724]
	ldr	w18, [x0, 1448]
	str	w17, [x0, 1444]
	ldr	w17, [x0, 728]
	str	w15, [x0, 732]
	ldr	w15, [x0, 736]
	str	w18, [x0, 728]
	str	w16, [x0, 4512]
	str	w17, [x0, 1448]
	ldr	w16, [x2, 420]
	str	w15, [x2, 420]
	ldr	w15, [x0, 740]
	str	w16, [x0, 736]
	ldr	w16, [x2, 424]
	str	w15, [x2, 424]
	ldr	w11, [x0, 744]
	ldr	w7, [x0, 756]
	str	w16, [x0, 740]
	ldr	w13, [x0, 2976]
	str	w11, [x0, 2976]
	ldr	w24, [x0, 760]
	ldr	w4, [x0, 6048]
	str	w13, [x0, 744]
	ldr	w11, [x0, 2980]
	str	w7, [x0, 6048]
	ldr	w13, [x0, 748]
	str	w4, [x0, 756]
	ldr	w7, [x0, 6052]
	str	w11, [x0, 748]
	ldr	w11, [x0, 2984]
	str	w13, [x0, 2980]
	ldr	w13, [x0, 752]
	str	w7, [x0, 760]
	ldr	w7, [x0, 6056]
	str	w24, [x0, 6052]
	ldr	w24, [x0, 764]
	str	w11, [x0, 752]
	str	w13, [x0, 2984]
	str	w7, [x0, 764]
	ldr	w7, [x0, 780]
	str	w24, [x0, 6056]
	ldr	w3, [x0, 3120]
	ldr	w9, [x0, 792]
	str	w7, [x0, 3120]
	ldr	w7, [x0, 784]
	str	w3, [x0, 780]
	ldr	w3, [x0, 3124]
	ldr	w24, [x0, 3128]
	str	w7, [x0, 3124]
	add	x7, x2, 176
	ldr	w5, [x0, 4656]
	str	w3, [x0, 784]
	add	x3, x2, 368
	ldr	w2, [x0, 1584]
	str	w9, [x0, 1584]
	ldr	w9, [x0, 796]
	ldr	w30, [x0, 788]
	str	w2, [x0, 792]
	ldr	w2, [x0, 1588]
	str	w9, [x0, 1588]
	ldr	w9, [x0, 800]
	str	w24, [x0, 788]
	ldr	w24, [x0, 808]
	str	w2, [x0, 796]
	ldr	w2, [x0, 1592]
	str	w9, [x0, 1592]
	str	w30, [x0, 3128]
	str	w2, [x0, 800]
	ldr	w2, [x0, 804]
	str	w5, [x0, 804]
	str	w2, [x0, 4656]
	ldr	w2, [x0, 4660]
	str	w24, [x0, 4660]
	ldr	w24, [x0, 812]
	str	w2, [x0, 808]
	ldr	w2, [x0, 4664]
	str	w24, [x0, 4664]
	ldr	w14, [x0, 828]
	ldr	w24, [x0, 832]
	str	w2, [x0, 812]
	ldr	w2, [x0, 3888]
	str	w14, [x0, 3888]
	ldr	w20, [x0, 840]
	str	w2, [x0, 828]
	ldr	w2, [x0, 3892]
	str	w24, [x0, 3892]
	ldr	w24, [x0, 836]
	str	w2, [x0, 832]
	ldr	w2, [x0, 3896]
	str	w24, [x0, 3896]
	str	w2, [x0, 836]
	ldr	w2, [x0, 2352]
	str	w20, [x0, 2352]
	ldr	w20, [x0, 844]
	str	w2, [x0, 840]
	ldr	w2, [x0, 2356]
	str	w20, [x0, 2356]
	ldr	w20, [x0, 848]
	str	w2, [x0, 844]
	ldr	w2, [x0, 2360]
	str	w20, [x0, 2360]
	ldr	w20, [x0, 852]
	str	w2, [x0, 848]
	ldr	w2, [x1, 304]
	str	w20, [x1, 304]
	ldr	w20, [x0, 856]
	str	w2, [x0, 852]
	ldr	w2, [x1, 308]
	str	w20, [x1, 308]
	ldr	w20, [x0, 860]
	str	w2, [x0, 856]
	ldr	w2, [x1, 312]
	str	w20, [x1, 312]
	ldr	w19, [x0, 3504]
	ldr	w17, [x0, 888]
	str	w2, [x0, 860]
	ldr	w2, [x0, 876]
	str	w19, [x0, 876]
	ldr	w19, [x0, 880]
	str	w2, [x0, 3504]
	ldr	w2, [x0, 3508]
	str	w19, [x0, 3508]
	ldr	w19, [x0, 884]
	str	w2, [x0, 880]
	ldr	w2, [x0, 3512]
	str	w19, [x0, 3512]
	str	w2, [x0, 884]
	ldr	w2, [x0, 1968]
	str	w17, [x0, 1968]
	ldr	w17, [x0, 892]
	str	w2, [x0, 888]
	ldr	w2, [x0, 1972]
	str	w17, [x0, 1972]
	ldr	w17, [x0, 896]
	str	w2, [x0, 892]
	ldr	w2, [x0, 1976]
	str	w17, [x0, 1976]
	str	w2, [x0, 896]
	ldr	w2, [x0, 900]
	ldr	w16, [x0, 5040]
	ldr	w24, [x0, 904]
	str	w2, [x0, 5040]
	ldr	w2, [x0, 5044]
	str	w16, [x0, 900]
	ldr	w23, [x0, 912]
	str	w24, [x0, 5044]
	ldr	w24, [x0, 908]
	str	w2, [x0, 904]
	ldr	w2, [x0, 5048]
	ldr	w11, [x0, 924]
	str	w24, [x0, 5048]
	str	w2, [x0, 908]
	ldr	w2, [x0, 1200]
	str	w23, [x0, 1200]
	ldr	w23, [x0, 916]
	str	w2, [x0, 912]
	ldr	w2, [x0, 1204]
	str	w23, [x0, 1204]
	ldr	w23, [x0, 920]
	str	w2, [x0, 916]
	ldr	w2, [x0, 1208]
	str	w23, [x0, 1208]
	str	w2, [x0, 920]
	ldr	w2, [x0, 4272]
	str	w11, [x0, 4272]
	str	w2, [x0, 924]
	ldr	w2, [x0, 928]
	ldr	w11, [x7, 4]
	str	w2, [x7, 4]
	ldr	w2, [x0, 932]
	str	w11, [x0, 928]
	ldr	w11, [x7, 8]
	str	w2, [x7, 8]
	mov	x2, x1
	ldr	w23, [x0, 2740]
	str	w11, [x0, 932]
	ldr	w24, [x0, 940]
	ldr	w4, [x0, 2736]
	str	w23, [x0, 940]
	ldr	w23, [x0, 2744]
	str	w24, [x0, 2740]
	ldr	w24, [x0, 944]
	ldr	w9, [x0, 948]
	str	w23, [x0, 944]
	ldr	w23, [x0, 5812]
	str	w24, [x0, 2744]
	ldr	w24, [x0, 952]
	ldr	w6, [x0, 5808]
	str	w23, [x0, 952]
	ldr	w23, [x0, 5816]
	str	w24, [x0, 5812]
	ldr	w11, [x0, 936]
	str	w4, [x0, 936]
	add	x4, x1, 112
	ldr	w24, [x0, 956]
	str	w23, [x0, 956]
	ldr	w22, [x0, 3312]
	str	w6, [x0, 948]
	ldr	w23, [x0, 972]
	str	w11, [x0, 2736]
	str	w9, [x0, 5808]
	str	w22, [x0, 972]
	str	w24, [x0, 5816]
	str	w23, [x0, 3312]
	ldr	w23, [x0, 976]
	ldr	w22, [x0, 3316]
	ldr	w14, [x0, 984]
	str	w23, [x0, 3316]
	ldr	w23, [x0, 980]
	str	w22, [x0, 976]
	ldr	w22, [x0, 3320]
	ldr	w24, [x0, 1000]
	str	w23, [x0, 3320]
	ldr	w23, [x0, 4852]
	str	w22, [x0, 980]
	ldr	w22, [x0, 1776]
	str	w14, [x0, 1776]
	ldr	w14, [x0, 1780]
	str	w23, [x0, 1000]
	ldr	w8, [x0, 4848]
	str	w22, [x0, 984]
	ldr	w22, [x0, 988]
	str	w14, [x0, 988]
	ldr	w23, [x0, 4856]
	str	w24, [x0, 4852]
	ldr	w14, [x0, 1784]
	str	w22, [x0, 1780]
	ldr	w22, [x0, 992]
	ldr	w24, [x0, 1004]
	str	w14, [x0, 992]
	str	w23, [x0, 1004]
	str	w22, [x0, 1784]
	ldr	w22, [x0, 996]
	str	w8, [x0, 996]
	ldr	w23, [x0, 1020]
	str	w24, [x0, 4856]
	str	w22, [x0, 4848]
	ldr	w10, [x0, 4080]
	str	w23, [x0, 4080]
	ldr	w21, [x0, 1032]
	ldr	w20, [x0, 2544]
	str	w10, [x0, 1020]
	ldr	w23, [x0, 1024]
	str	w21, [x0, 2544]
	ldr	w21, [x0, 2548]
	str	w20, [x0, 1032]
	ldr	w20, [x0, 1036]
	ldr	w24, [x0, 1028]
	str	w21, [x0, 1036]
	ldr	w21, [x0, 2552]
	str	w20, [x0, 2548]
	ldr	w10, [x0, 4084]
	str	w23, [x0, 4084]
	ldr	w20, [x0, 1040]
	str	w21, [x0, 1040]
	ldr	w23, [x0, 4088]
	str	w10, [x0, 1024]
	ldr	w21, [x0, 1044]
	str	w20, [x0, 2552]
	str	w24, [x0, 4088]
	str	w23, [x0, 1028]
	ldr	w18, [x1, 496]
	str	w21, [x1, 496]
	ldr	w21, [x0, 1048]
	str	w18, [x0, 1044]
	ldr	w18, [x1, 500]
	str	w21, [x1, 500]
	ldr	w21, [x0, 1052]
	str	w18, [x0, 1048]
	ldr	w18, [x1, 504]
	str	w21, [x1, 504]
	ldr	w13, [x0, 2160]
	ldr	w16, [x0, 1080]
	str	w18, [x0, 1052]
	ldr	w24, [x0, 1072]
	str	w13, [x0, 1080]
	ldr	w13, [x0, 2164]
	str	w16, [x0, 2160]
	ldr	w21, [x0, 3700]
	str	w24, [x0, 3700]
	ldr	w16, [x0, 1084]
	str	w13, [x0, 1084]
	ldr	w13, [x0, 2168]
	str	w21, [x0, 1072]
	ldr	w15, [x0, 3696]
	str	w16, [x0, 2164]
	ldr	w18, [x0, 1068]
	ldr	w24, [x0, 1076]
	str	w15, [x0, 1068]
	ldr	w21, [x0, 3704]
	str	w18, [x0, 3696]
	ldr	w16, [x0, 1088]
	str	w13, [x0, 1088]
	ldr	w13, [x0, 1092]
	str	w21, [x0, 1076]
	str	w24, [x0, 3704]
	str	w16, [x0, 2168]
	ldr	w7, [x1, 112]
	str	w13, [x1, 112]
	ldr	w13, [x0, 1096]
	str	w7, [x0, 1092]
	ldr	w1, [x1, 116]
	str	w13, [x4, 4]
	ldr	w13, [x0, 1100]
	str	w1, [x0, 1096]
	ldr	w1, [x4, 8]
	str	w13, [x4, 8]
	ldr	w11, [x0, 1392]
	ldr	w6, [x0, 1116]
	str	w1, [x0, 1100]
	ldr	w1, [x0, 1104]
	str	w11, [x0, 1104]
	ldr	w11, [x0, 1108]
	str	w1, [x0, 1392]
	ldr	w1, [x0, 1396]
	str	w11, [x0, 1396]
	ldr	w11, [x0, 1112]
	str	w1, [x0, 1108]
	ldr	w1, [x0, 1400]
	str	w11, [x0, 1400]
	str	w1, [x0, 1112]
	ldr	w1, [x0, 4464]
	str	w6, [x0, 4464]
	ldr	w6, [x0, 1120]
	str	w1, [x0, 1116]
	ldr	w1, [x3, 4]
	str	w6, [x3, 4]
	ldr	w6, [x0, 1124]
	str	w1, [x0, 1120]
	ldr	w1, [x3, 8]
	str	w6, [x3, 8]
	ldr	w3, [x0, 1128]
	str	w1, [x0, 1124]
	ldr	w1, [x0, 2928]
	str	w3, [x0, 2928]
	ldr	w3, [x0, 1132]
	ldr	w24, [x0, 1136]
	str	w1, [x0, 1128]
	ldr	w1, [x0, 2932]
	str	w3, [x0, 2932]
	ldr	w3, [x0, 2936]
	str	w24, [x0, 2936]
	ldr	w12, [x0, 6000]
	str	w1, [x0, 1132]
	add	x1, x0, 4096
	ldr	w24, [x0, 1144]
	str	w3, [x0, 1136]
	ldr	w3, [x0, 1140]
	str	w12, [x0, 1140]
	ldr	w22, [x0, 1164]
	str	w3, [x0, 6000]
	ldr	w3, [x0, 6004]
	str	w24, [x0, 6004]
	ldr	w24, [x0, 1148]
	str	w3, [x0, 1144]
	ldr	w3, [x0, 6008]
	str	w24, [x0, 6008]
	str	w3, [x0, 1148]
	ldr	w3, [x0, 3216]
	str	w22, [x0, 3216]
	ldr	w22, [x0, 1168]
	str	w3, [x0, 1164]
	ldr	w3, [x0, 3220]
	str	w22, [x0, 3220]
	ldr	w22, [x0, 1172]
	str	w3, [x0, 1168]
	ldr	w3, [x0, 3224]
	str	w22, [x0, 3224]
	ldr	w10, [x0, 1176]
	ldr	w24, [x0, 1180]
	str	w3, [x0, 1172]
	ldr	w3, [x0, 1680]
	str	w10, [x0, 1680]
	ldr	w19, [x0, 4752]
	ldr	w23, [x0, 1212]
	str	w3, [x0, 1176]
	ldr	w3, [x0, 1684]
	str	w24, [x0, 1684]
	ldr	w24, [x0, 1184]
	str	w3, [x0, 1180]
	ldr	w3, [x0, 1688]
	str	w24, [x0, 1688]
	ldr	w24, [x0, 1192]
	str	w3, [x0, 1184]
	ldr	w3, [x0, 1188]
	str	w19, [x0, 1188]
	str	w3, [x0, 4752]
	ldr	w3, [x0, 4756]
	str	w24, [x0, 4756]
	ldr	w24, [x0, 1196]
	str	w3, [x0, 1192]
	ldr	w3, [x0, 4760]
	str	w24, [x0, 4760]
	str	w3, [x0, 1196]
	ldr	w3, [x0, 3984]
	str	w23, [x0, 3984]
	ldr	w23, [x0, 1216]
	str	w3, [x0, 1212]
	ldr	w3, [x0, 3988]
	str	w23, [x0, 3988]
	ldr	w18, [x0, 2448]
	ldr	w17, [x0, 1224]
	str	w3, [x0, 1216]
	ldr	w23, [x0, 1220]
	str	w18, [x0, 1224]
	ldr	w18, [x0, 1228]
	str	w17, [x0, 2448]
	ldr	w17, [x0, 2452]
	ldr	w3, [x0, 3992]
	str	w18, [x0, 2452]
	ldr	w18, [x0, 1232]
	str	w17, [x0, 1228]
	ldr	w17, [x0, 2456]
	str	w3, [x0, 1220]
	ldr	w16, [x0, 1236]
	str	w18, [x0, 2456]
	str	w23, [x0, 3992]
	str	w17, [x0, 1232]
	ldr	w15, [x2, 400]
	str	w16, [x2, 400]
	ldr	w16, [x0, 1240]
	str	w15, [x0, 1236]
	ldr	w15, [x2, 404]
	str	w16, [x2, 404]
	ldr	w16, [x0, 1244]
	str	w15, [x0, 1240]
	ldr	w15, [x2, 408]
	str	w16, [x2, 408]
	str	w15, [x0, 1244]
	ldr	w15, [x0, 1260]
	ldr	w7, [x0, 3600]
	ldr	w13, [x0, 2064]
	str	w15, [x0, 3600]
	ldr	w21, [x0, 1272]
	str	w7, [x0, 1260]
	ldr	w23, [x0, 3608]
	str	w13, [x0, 1272]
	ldr	w13, [x0, 2068]
	str	w21, [x0, 2064]
	ldr	w21, [x0, 1276]
	ldr	w24, [x0, 1268]
	str	w13, [x0, 1276]
	ldr	w13, [x0, 2072]
	str	w21, [x0, 2068]
	ldr	w15, [x0, 1264]
	str	w23, [x0, 1268]
	ldr	w7, [x0, 3604]
	str	w24, [x0, 3608]
	ldr	w21, [x0, 1280]
	str	w13, [x0, 1280]
	ldr	w13, [x0, 1284]
	str	w7, [x0, 1264]
	str	w15, [x0, 3604]
	str	w21, [x0, 2072]
	ldr	w11, [x2, 16]
	str	w13, [x2, 16]
	str	w11, [x0, 1284]
	ldr	w11, [x0, 1288]
	ldr	w13, [x2, 20]
	str	w11, [x2, 20]
	ldr	w11, [x0, 1292]
	str	w13, [x0, 1288]
	ldr	w13, [x2, 24]
	str	w11, [x2, 24]
	ldr	w5, [x0, 4368]
	str	w13, [x0, 1292]
	ldr	w13, [x0, 1308]
	ldr	w24, [x0, 1312]
	str	w5, [x0, 1308]
	str	w13, [x0, 4368]
	ldr	w23, [x1, 276]
	str	w24, [x1, 276]
	ldr	w24, [x0, 1316]
	str	w23, [x0, 1312]
	ldr	w23, [x1, 280]
	str	w24, [x1, 280]
	ldr	w12, [x0, 2832]
	ldr	w14, [x0, 1320]
	str	w23, [x0, 1316]
	ldr	w8, [x0, 5904]
	str	w12, [x0, 1320]
	ldr	w12, [x0, 2836]
	str	w14, [x0, 2832]
	ldr	w14, [x0, 1324]
	ldr	w23, [x0, 5908]
	str	w12, [x0, 1324]
	ldr	w12, [x0, 2840]
	str	w14, [x0, 2836]
	ldr	w14, [x0, 1328]
	str	w12, [x0, 1328]
	ldr	w12, [x0, 1332]
	str	w8, [x0, 1332]
	str	w14, [x0, 2840]
	str	w12, [x0, 5904]
	ldr	w24, [x0, 1336]
	str	w23, [x0, 1336]
	ldr	w22, [x0, 1356]
	ldr	w23, [x0, 5912]
	str	w24, [x0, 5908]
	ldr	w24, [x0, 1340]
	ldr	w19, [x0, 1872]
	str	w23, [x0, 1340]
	ldr	w23, [x0, 3408]
	str	w22, [x0, 3408]
	ldr	w22, [x0, 3412]
	str	w24, [x0, 5912]
	str	w23, [x0, 1356]
	ldr	w23, [x0, 1360]
	str	w22, [x0, 1360]
	ldr	w22, [x0, 3416]
	str	w23, [x0, 3412]
	ldr	w23, [x0, 1364]
	str	w22, [x0, 1364]
	ldr	w22, [x0, 1368]
	str	w19, [x0, 1368]
	ldr	w19, [x0, 1372]
	str	w23, [x0, 3416]
	str	w22, [x0, 1872]
	ldr	w22, [x0, 1876]
	str	w19, [x0, 1876]
	ldr	w19, [x0, 1376]
	str	w22, [x0, 1372]
	ldr	w22, [x0, 1880]
	str	w19, [x0, 1880]
	str	w22, [x0, 1376]
	ldr	w22, [x0, 1380]
	ldr	w18, [x0, 4944]
	ldr	w23, [x0, 4948]
	str	w22, [x0, 4944]
	ldr	w24, [x0, 1384]
	str	w18, [x0, 1380]
	ldr	w17, [x0, 4176]
	str	w23, [x0, 1384]
	ldr	w23, [x0, 4952]
	str	w24, [x0, 4948]
	ldr	w24, [x0, 1388]
	str	w23, [x0, 1388]
	ldr	w23, [x0, 1404]
	str	w17, [x0, 1404]
	str	w24, [x0, 4952]
	str	w23, [x0, 4176]
	ldr	w23, [x0, 1408]
	ldr	w17, [x1, 84]
	str	w23, [x1, 84]
	ldr	w23, [x0, 1412]
	str	w17, [x0, 1408]
	ldr	w17, [x1, 88]
	str	w23, [x1, 88]
	ldr	w16, [x0, 2640]
	str	w17, [x0, 1412]
	ldr	w17, [x0, 1416]
	str	w16, [x0, 1416]
	ldr	w16, [x0, 2644]
	str	w17, [x0, 2640]
	ldr	w17, [x0, 1420]
	str	w16, [x0, 1420]
	str	w17, [x0, 2644]
	ldr	w17, [x0, 1424]
	ldr	w16, [x0, 2648]
	ldr	w23, [x0, 5716]
	str	w17, [x0, 2648]
	ldr	w24, [x0, 1432]
	str	w16, [x0, 1424]
	ldr	w21, [x0, 3792]
	str	w23, [x0, 1432]
	ldr	w23, [x0, 5720]
	str	w24, [x0, 5716]
	ldr	w24, [x0, 1436]
	ldr	w7, [x0, 5712]
	str	w23, [x0, 1436]
	ldr	w23, [x0, 1452]
	str	w21, [x0, 1452]
	ldr	w21, [x0, 3796]
	str	w24, [x0, 5720]
	ldr	w16, [x0, 1428]
	str	w23, [x0, 3792]
	ldr	w23, [x0, 1456]
	str	w21, [x0, 1456]
	ldr	w21, [x0, 3800]
	str	w7, [x0, 1428]
	ldr	w11, [x0, 2256]
	str	w23, [x0, 3796]
	ldr	w23, [x0, 1460]
	str	w21, [x0, 1460]
	ldr	w21, [x0, 1464]
	str	w11, [x0, 1464]
	str	w16, [x0, 5712]
	str	w23, [x0, 3800]
	str	w21, [x0, 2256]
	ldr	w21, [x0, 1468]
	ldr	w11, [x0, 2260]
	ldr	w23, [x0, 1476]
	str	w21, [x0, 2260]
	ldr	w21, [x0, 1472]
	str	w11, [x0, 1468]
	ldr	w11, [x0, 2264]
	str	w21, [x0, 2264]
	str	w11, [x0, 1472]
	ldr	w21, [x2, 208]
	str	w23, [x2, 208]
	ldr	w23, [x0, 1480]
	str	w21, [x0, 1476]
	ldr	w21, [x2, 212]
	str	w23, [x2, 212]
	ldr	w23, [x0, 1484]
	str	w21, [x0, 1480]
	ldr	w21, [x2, 216]
	str	w23, [x2, 216]
	ldr	w13, [x0, 4560]
	ldr	w14, [x0, 1500]
	str	w21, [x0, 1484]
	str	w13, [x0, 1500]
	ldr	w13, [x0, 1504]
	str	w14, [x0, 4560]
	ldr	w14, [x1, 468]
	str	w13, [x1, 468]
	ldr	w13, [x0, 1508]
	str	w14, [x0, 1504]
	ldr	w14, [x1, 472]
	str	w13, [x1, 472]
	str	w14, [x0, 1508]
	ldr	w14, [x0, 1512]
	ldr	w12, [x0, 3024]
	ldr	w23, [x0, 3032]
	str	w14, [x0, 3024]
	ldr	w24, [x0, 1520]
	str	w12, [x0, 1512]
	ldr	w19, [x0, 3096]
	str	w23, [x0, 1520]
	ldr	w23, [x0, 6100]
	str	w24, [x0, 3032]
	ldr	w24, [x0, 1528]
	ldr	w20, [x0, 1524]
	str	w23, [x0, 1528]
	ldr	w23, [x0, 6104]
	str	w24, [x0, 6100]
	ldr	w24, [x0, 1532]
	ldr	w8, [x0, 6096]
	str	w23, [x0, 1532]
	ldr	w23, [x0, 1548]
	str	w19, [x0, 1548]
	ldr	w14, [x0, 1516]
	str	w8, [x0, 1524]
	ldr	w12, [x0, 3028]
	str	w23, [x0, 3096]
	ldr	w23, [x0, 1552]
	str	w14, [x0, 3028]
	ldr	w19, [x0, 3100]
	str	w12, [x0, 1516]
	str	w20, [x0, 6096]
	str	w23, [x0, 3100]
	ldr	w23, [x0, 1556]
	str	w19, [x0, 1552]
	str	w24, [x0, 6104]
	ldr	w19, [x0, 3104]
	str	w23, [x0, 3104]
	ldr	w23, [x0, 4636]
	ldr	w22, [x0, 3864]
	str	w19, [x0, 1556]
	ldr	w24, [x0, 1576]
	str	w23, [x0, 1576]
	ldr	w23, [x0, 4640]
	ldr	w18, [x0, 4632]
	str	w24, [x0, 4636]
	ldr	w24, [x0, 1580]
	str	w23, [x0, 1580]
	ldr	w23, [x0, 1596]
	str	w22, [x0, 1596]
	ldr	w22, [x0, 3868]
	str	w24, [x0, 4640]
	ldr	w17, [x0, 2328]
	str	w23, [x0, 3864]
	ldr	w23, [x0, 1600]
	str	w22, [x0, 1600]
	ldr	w22, [x0, 3872]
	ldr	w19, [x0, 1572]
	str	w23, [x0, 3868]
	ldr	w23, [x0, 1604]
	str	w22, [x0, 1604]
	ldr	w22, [x0, 1608]
	str	w18, [x0, 1572]
	str	w17, [x0, 1608]
	ldr	w17, [x0, 1612]
	str	w23, [x0, 3872]
	str	w22, [x0, 2328]
	str	w19, [x0, 4632]
	ldr	w22, [x0, 2332]
	str	w17, [x0, 2332]
	ldr	w17, [x0, 1616]
	ldr	w23, [x0, 1620]
	str	w22, [x0, 1612]
	ldr	w22, [x0, 2336]
	str	w17, [x0, 2336]
	str	w22, [x0, 1616]
	ldr	w22, [x2, 280]
	str	w23, [x2, 280]
	ldr	w23, [x0, 1624]
	str	w22, [x0, 1620]
	ldr	w22, [x2, 284]
	str	w23, [x2, 284]
	ldr	w23, [x0, 1628]
	str	w22, [x0, 1624]
	ldr	w22, [x2, 288]
	str	w23, [x2, 288]
	ldr	w9, [x0, 3480]
	str	w22, [x0, 1628]
	ldr	w22, [x0, 1644]
	str	w9, [x0, 1644]
	ldr	w9, [x0, 1648]
	str	w22, [x0, 3480]
	ldr	w22, [x0, 3484]
	str	w9, [x0, 3484]
	ldr	w9, [x0, 1652]
	str	w22, [x0, 1648]
	ldr	w22, [x0, 3488]
	str	w9, [x0, 3488]
	str	w22, [x0, 1652]
	ldr	w22, [x0, 1656]
	ldr	w6, [x0, 1944]
	ldr	w23, [x0, 1952]
	str	w22, [x0, 1944]
	ldr	w24, [x0, 1664]
	str	w6, [x0, 1656]
	ldr	w21, [x0, 1668]
	str	w23, [x0, 1664]
	ldr	w23, [x0, 5020]
	str	w24, [x0, 1952]
	ldr	w24, [x0, 1672]
	ldr	w13, [x0, 4248]
	str	w23, [x0, 1672]
	ldr	w23, [x0, 5024]
	str	w24, [x0, 5020]
	ldr	w24, [x0, 1676]
	ldr	w11, [x0, 5016]
	str	w23, [x0, 1676]
	ldr	w23, [x0, 1692]
	str	w13, [x0, 1692]
	ldr	w22, [x0, 1660]
	str	w11, [x0, 1668]
	ldr	w6, [x0, 1948]
	str	w23, [x0, 4248]
	ldr	w23, [x0, 1696]
	str	w22, [x0, 1948]
	str	w21, [x0, 5016]
	str	w6, [x0, 1660]
	str	w24, [x0, 5024]
	ldr	w13, [x1, 156]
	str	w23, [x1, 156]
	ldr	w23, [x0, 1700]
	str	w13, [x0, 1696]
	ldr	w13, [x1, 160]
	str	w23, [x1, 160]
	ldr	w23, [x0, 2716]
	ldr	w24, [x0, 1708]
	str	w13, [x0, 1700]
	ldr	w12, [x0, 1704]
	str	w23, [x0, 1708]
	ldr	w23, [x0, 2720]
	str	w24, [x0, 2716]
	ldr	w24, [x0, 1712]
	ldr	w14, [x0, 1716]
	str	w23, [x0, 1712]
	ldr	w23, [x0, 5788]
	str	w24, [x0, 2720]
	ldr	w24, [x0, 1720]
	ldr	w10, [x0, 2712]
	str	w23, [x0, 1720]
	ldr	w23, [x0, 5792]
	str	w24, [x0, 5788]
	ldr	w24, [x0, 1724]
	str	w10, [x0, 1704]
	ldr	w8, [x0, 5784]
	str	w23, [x0, 1724]
	ldr	w23, [x0, 1740]
	str	w12, [x0, 2712]
	ldr	w20, [x0, 3288]
	str	w8, [x0, 1716]
	str	w14, [x0, 5784]
	str	w23, [x0, 3288]
	ldr	w23, [x0, 1744]
	str	w20, [x0, 1740]
	str	w24, [x0, 5792]
	ldr	w20, [x0, 3292]
	str	w23, [x0, 3292]
	ldr	w23, [x0, 1748]
	str	w20, [x0, 1744]
	ldr	w20, [x0, 3296]
	str	w23, [x0, 3296]
	ldr	w23, [x0, 4828]
	ldr	w24, [x0, 1768]
	str	w20, [x0, 1748]
	ldr	w18, [x0, 4056]
	str	w23, [x0, 1768]
	ldr	w23, [x0, 4832]
	str	w24, [x0, 4828]
	ldr	w24, [x0, 1772]
	ldr	w19, [x0, 4824]
	str	w23, [x0, 1772]
	ldr	w23, [x0, 1788]
	str	w18, [x0, 1788]
	ldr	w18, [x0, 4060]
	str	w24, [x0, 4832]
	ldr	w3, [x0, 1764]
	str	w23, [x0, 4056]
	ldr	w23, [x0, 1792]
	str	w18, [x0, 1792]
	ldr	w18, [x0, 4064]
	str	w19, [x0, 1764]
	ldr	w17, [x0, 1800]
	str	w23, [x0, 4060]
	ldr	w23, [x0, 1796]
	str	w18, [x0, 1796]
	str	w3, [x0, 4824]
	str	w23, [x0, 4064]
	ldr	w4, [x0, 2520]
	str	w17, [x0, 2520]
	ldr	w23, [x0, 2528]
	ldr	w24, [x0, 1808]
	str	w4, [x0, 1800]
	ldr	w17, [x0, 1804]
	str	w23, [x0, 1808]
	ldr	w4, [x0, 2524]
	str	w24, [x0, 2528]
	ldr	w16, [x0, 1812]
	str	w17, [x0, 2524]
	str	w4, [x0, 1804]
	ldr	w15, [x2, 472]
	str	w16, [x2, 472]
	ldr	w16, [x0, 1816]
	str	w15, [x0, 1812]
	ldr	w15, [x2, 476]
	str	w16, [x2, 476]
	ldr	w16, [x0, 1820]
	str	w15, [x0, 1816]
	ldr	w15, [x2, 480]
	str	w16, [x2, 480]
	ldr	w9, [x0, 1836]
	ldr	w7, [x0, 3672]
	str	w15, [x0, 1820]
	str	w9, [x0, 3672]
	ldr	w9, [x0, 1840]
	str	w7, [x0, 1836]
	ldr	w7, [x0, 3676]
	str	w9, [x0, 3676]
	ldr	w9, [x0, 1844]
	str	w7, [x0, 1840]
	ldr	w7, [x0, 3680]
	ldr	w23, [x0, 2140]
	str	w9, [x0, 3680]
	ldr	w24, [x0, 1852]
	str	w7, [x0, 1844]
	ldr	w5, [x0, 2136]
	str	w23, [x0, 1852]
	ldr	w7, [x0, 1848]
	str	w24, [x0, 2140]
	ldr	w23, [x0, 2144]
	str	w5, [x0, 1848]
	ldr	w24, [x0, 1856]
	str	w7, [x0, 2136]
	ldr	w22, [x0, 1860]
	str	w23, [x0, 1856]
	str	w24, [x0, 2144]
	ldr	w21, [x2, 88]
	str	w22, [x2, 88]
	ldr	w22, [x0, 1864]
	str	w21, [x0, 1860]
	ldr	w21, [x2, 92]
	str	w22, [x2, 92]
	ldr	w22, [x0, 1868]
	str	w21, [x0, 1864]
	ldr	w21, [x2, 96]
	str	w22, [x2, 96]
	ldr	w22, [x0, 1884]
	str	w21, [x0, 1868]
	ldr	w21, [x0, 4440]
	str	w22, [x0, 4440]
	ldr	w22, [x0, 1888]
	str	w21, [x0, 1884]
	ldr	w21, [x1, 348]
	str	w22, [x1, 348]
	ldr	w22, [x0, 1892]
	str	w21, [x0, 1888]
	ldr	w21, [x1, 352]
	str	w22, [x1, 352]
	ldr	w22, [x0, 2904]
	ldr	w23, [x0, 5980]
	str	w21, [x0, 1892]
	ldr	w21, [x0, 1896]
	str	w22, [x0, 1896]
	ldr	w24, [x0, 1912]
	str	w23, [x0, 1912]
	ldr	w22, [x0, 1900]
	str	w21, [x0, 2904]
	ldr	w21, [x0, 2908]
	str	w24, [x0, 5980]
	ldr	w23, [x0, 5984]
	str	w22, [x0, 2908]
	ldr	w8, [x0, 5976]
	str	w21, [x0, 1900]
	ldr	w21, [x0, 2912]
	ldr	w24, [x0, 1916]
	str	w23, [x0, 1916]
	ldr	w22, [x0, 1904]
	str	w21, [x0, 1904]
	ldr	w23, [x0, 1932]
	str	w24, [x0, 5984]
	ldr	w21, [x0, 1908]
	str	w8, [x0, 1908]
	str	w22, [x0, 2912]
	str	w21, [x0, 5976]
	ldr	w20, [x0, 3192]
	str	w23, [x0, 3192]
	ldr	w23, [x0, 1936]
	ldr	w24, [x0, 1940]
	str	w20, [x0, 1932]
	ldr	w20, [x0, 3196]
	str	w23, [x0, 3196]
	ldr	w23, [x0, 3200]
	str	w24, [x0, 3200]
	ldr	w24, [x0, 1960]
	str	w20, [x0, 1936]
	ldr	w18, [x0, 3960]
	str	w23, [x0, 1940]
	ldr	w23, [x0, 4732]
	str	w24, [x0, 4732]
	ldr	w24, [x0, 1964]
	ldr	w3, [x0, 4728]
	str	w23, [x0, 1960]
	ldr	w23, [x0, 4736]
	str	w24, [x0, 4736]
	ldr	w19, [x0, 1956]
	str	w3, [x0, 1956]
	mov	x3, x2
	str	w23, [x0, 1964]
	ldr	w23, [x0, 1980]
	str	w18, [x0, 1980]
	ldr	w18, [x0, 3964]
	str	w19, [x0, 4728]
	str	w23, [x0, 3960]
	ldr	w23, [x0, 1984]
	str	w18, [x0, 1984]
	str	w23, [x0, 3964]
	ldr	w23, [x0, 1988]
	ldr	w18, [x0, 3968]
	ldr	w24, [x0, 1996]
	str	w23, [x0, 3968]
	ldr	w23, [x0, 2428]
	str	w18, [x0, 1988]
	ldr	w4, [x0, 2424]
	str	w24, [x0, 2428]
	ldr	w17, [x0, 1992]
	str	w23, [x0, 1996]
	ldr	w24, [x0, 2000]
	str	w4, [x0, 1992]
	ldr	w23, [x0, 2432]
	str	w17, [x0, 2424]
	ldr	w16, [x0, 2004]
	str	w24, [x0, 2432]
	str	w23, [x0, 2000]
	ldr	w15, [x2, 376]
	str	w16, [x2, 376]
	ldr	w16, [x0, 2008]
	str	w15, [x0, 2004]
	ldr	w15, [x2, 380]
	str	w16, [x2, 380]
	ldr	w16, [x0, 2012]
	str	w15, [x0, 2008]
	ldr	w15, [x2, 384]
	str	w16, [x2, 384]
	ldr	w16, [x0, 2028]
	str	w15, [x0, 2012]
	ldr	w15, [x0, 3576]
	str	w16, [x0, 3576]
	ldr	w16, [x0, 2032]
	str	w15, [x0, 2028]
	ldr	w15, [x0, 3580]
	str	w16, [x0, 3580]
	ldr	w23, [x0, 5116]
	ldr	w24, [x0, 2056]
	str	w15, [x0, 2032]
	ldr	w15, [x0, 3584]
	str	w23, [x0, 2056]
	ldr	w23, [x0, 5120]
	str	w24, [x0, 5116]
	ldr	w24, [x0, 2060]
	ldr	w13, [x0, 4344]
	str	w23, [x0, 2060]
	ldr	w23, [x0, 2076]
	str	w24, [x0, 5120]
	ldr	w5, [x0, 2052]
	str	w13, [x0, 2076]
	ldr	w16, [x0, 2036]
	str	w15, [x0, 2036]
	ldr	w15, [x0, 5112]
	str	w23, [x0, 4344]
	ldr	w23, [x0, 2080]
	str	w16, [x0, 3584]
	str	w5, [x0, 5112]
	str	w15, [x0, 2052]
	ldr	w13, [x1, 252]
	str	w23, [x1, 252]
	ldr	w23, [x0, 2084]
	str	w13, [x0, 2080]
	ldr	w13, [x1, 256]
	str	w23, [x1, 256]
	ldr	w12, [x0, 2088]
	str	w13, [x0, 2084]
	ldr	w11, [x0, 2808]
	str	w12, [x0, 2808]
	ldr	w23, [x0, 2096]
	ldr	w12, [x0, 2092]
	str	w11, [x0, 2088]
	ldr	w11, [x0, 2812]
	ldr	w24, [x0, 2104]
	str	w12, [x0, 2812]
	ldr	w22, [x0, 3384]
	str	w11, [x0, 2092]
	ldr	w11, [x0, 2816]
	str	w23, [x0, 2816]
	ldr	w23, [x0, 5884]
	str	w24, [x0, 5884]
	ldr	w24, [x0, 2108]
	str	w11, [x0, 2096]
	ldr	w10, [x0, 5880]
	str	w23, [x0, 2104]
	ldr	w23, [x0, 5888]
	str	w24, [x0, 5888]
	ldr	w11, [x0, 2100]
	str	w10, [x0, 2100]
	str	w23, [x0, 2108]
	ldr	w23, [x0, 2124]
	str	w22, [x0, 2124]
	ldr	w22, [x0, 3388]
	str	w11, [x0, 5880]
	str	w23, [x0, 3384]
	ldr	w23, [x0, 2128]
	str	w22, [x0, 2128]
	str	w23, [x0, 3388]
	ldr	w23, [x0, 2132]
	ldr	w22, [x0, 3392]
	ldr	w24, [x0, 2152]
	str	w23, [x0, 3392]
	ldr	w23, [x0, 4924]
	str	w22, [x0, 2132]
	ldr	w20, [x0, 4152]
	str	w24, [x0, 4924]
	ldr	w24, [x0, 2156]
	str	w23, [x0, 2152]
	ldr	w23, [x0, 4928]
	ldr	w8, [x0, 4920]
	str	w24, [x0, 4928]
	ldr	w21, [x0, 2148]
	str	w23, [x0, 2156]
	ldr	w23, [x0, 2172]
	str	w8, [x0, 2148]
	str	w20, [x0, 2172]
	str	w21, [x0, 4920]
	str	w23, [x0, 4152]
	ldr	w23, [x0, 2176]
	ldr	w20, [x1, 60]
	str	w23, [x1, 60]
	ldr	w23, [x0, 2180]
	str	w20, [x0, 2176]
	ldr	w20, [x1, 64]
	str	w23, [x1, 64]
	ldr	w19, [x0, 2616]
	str	w20, [x0, 2180]
	ldr	w20, [x0, 2184]
	str	w19, [x0, 2184]
	str	w20, [x0, 2616]
	ldr	w20, [x0, 2188]
	ldr	w19, [x0, 2620]
	ldr	w23, [x0, 5692]
	str	w20, [x0, 2620]
	ldr	w24, [x0, 2200]
	str	w19, [x0, 2188]
	ldr	w17, [x0, 3768]
	str	w23, [x0, 2200]
	ldr	w23, [x0, 5696]
	str	w24, [x0, 5692]
	ldr	w24, [x0, 2204]
	ldr	w20, [x0, 2192]
	str	w23, [x0, 2204]
	ldr	w23, [x0, 2220]
	str	w17, [x0, 2220]
	ldr	w17, [x0, 3772]
	str	w24, [x0, 5696]
	ldr	w18, [x0, 2196]
	str	w23, [x0, 3768]
	ldr	w23, [x0, 2224]
	str	w17, [x0, 2224]
	ldr	w17, [x0, 3776]
	ldr	w19, [x0, 2624]
	str	w20, [x0, 2624]
	ldr	w20, [x0, 5688]
	str	w23, [x0, 3772]
	ldr	w23, [x0, 2228]
	str	w17, [x0, 2228]
	ldr	w17, [x0, 2244]
	str	w19, [x0, 2192]
	str	w20, [x0, 2196]
	str	w23, [x0, 3776]
	str	w18, [x0, 5688]
	ldr	w9, [x2, 184]
	str	w17, [x2, 184]
	ldr	w17, [x0, 2248]
	str	w9, [x0, 2244]
	ldr	w9, [x2, 188]
	str	w17, [x2, 188]
	ldr	w23, [x0, 2252]
	str	w9, [x0, 2248]
	ldr	w17, [x2, 192]
	str	w23, [x2, 192]
	ldr	w16, [x0, 4536]
	str	w17, [x0, 2252]
	ldr	w17, [x0, 2268]
	str	w16, [x0, 2268]
	str	w17, [x0, 4536]
	ldr	w17, [x0, 2272]
	ldr	w16, [x1, 444]
	str	w17, [x1, 444]
	ldr	w17, [x0, 2276]
	str	w16, [x0, 2272]
	ldr	w16, [x1, 448]
	str	w17, [x1, 448]
	ldr	w15, [x0, 3000]
	str	w16, [x0, 2276]
	ldr	w16, [x0, 2280]
	str	w15, [x0, 2280]
	ldr	w15, [x0, 2284]
	str	w16, [x0, 3000]
	ldr	w16, [x0, 3004]
	str	w15, [x0, 3004]
	ldr	w15, [x0, 2288]
	str	w16, [x0, 2284]
	ldr	w16, [x0, 3008]
	ldr	w23, [x0, 6076]
	str	w15, [x0, 3008]
	ldr	w24, [x0, 2296]
	str	w16, [x0, 2288]
	ldr	w12, [x0, 3144]
	str	w23, [x0, 2296]
	ldr	w23, [x0, 6080]
	str	w24, [x0, 6076]
	ldr	w24, [x0, 2300]
	ldr	w11, [x0, 2340]
	str	w23, [x0, 2300]
	ldr	w23, [x0, 2316]
	str	w12, [x0, 2316]
	ldr	w12, [x0, 3148]
	str	w24, [x0, 6080]
	ldr	w14, [x0, 2292]
	str	w23, [x0, 3144]
	ldr	w23, [x0, 2320]
	str	w12, [x0, 2320]
	ldr	w10, [x0, 4680]
	str	w11, [x0, 4680]
	ldr	w13, [x0, 6072]
	str	w23, [x0, 3148]
	ldr	w23, [x0, 2324]
	str	w10, [x0, 2340]
	ldr	w12, [x0, 3152]
	str	w13, [x0, 2292]
	str	w14, [x0, 6072]
	str	w23, [x0, 3152]
	ldr	w23, [x0, 4684]
	str	w12, [x0, 2324]
	ldr	w24, [x0, 2344]
	ldr	w22, [x0, 2364]
	str	w23, [x0, 2344]
	ldr	w23, [x0, 4688]
	str	w24, [x0, 4684]
	ldr	w24, [x0, 2348]
	str	w23, [x0, 2348]
	ldr	w23, [x0, 3912]
	str	w22, [x0, 3912]
	ldr	w22, [x0, 3916]
	str	w24, [x0, 4688]
	add	x24, x2, 136
	str	w23, [x0, 2364]
	ldr	w23, [x0, 2368]
	str	w22, [x0, 2368]
	ldr	w22, [x0, 3920]
	str	w23, [x0, 3916]
	ldr	w23, [x0, 2372]
	str	w22, [x0, 2372]
	ldr	w22, [x0, 2388]
	str	w23, [x0, 3920]
	ldr	w21, [x2, 328]
	str	w22, [x2, 328]
	ldr	w22, [x0, 2392]
	str	w21, [x0, 2388]
	ldr	w21, [x2, 332]
	str	w22, [x2, 332]
	ldr	w22, [x0, 2396]
	str	w21, [x0, 2392]
	ldr	w21, [x2, 336]
	str	w22, [x2, 336]
	str	w21, [x0, 2396]
	ldr	w21, [x0, 2412]
	ldr	w4, [x0, 3528]
	ldr	w19, [x0, 2436]
	str	w21, [x0, 3528]
	ldr	w20, [x0, 5064]
	str	w4, [x0, 2412]
	ldr	w21, [x0, 2416]
	str	w19, [x0, 5064]
	ldr	w19, [x0, 5068]
	str	w20, [x0, 2436]
	ldr	w20, [x0, 2440]
	ldr	w18, [x0, 4296]
	str	w19, [x0, 2440]
	ldr	w19, [x0, 5072]
	str	w20, [x0, 5068]
	ldr	w20, [x0, 2444]
	ldr	w22, [x0, 2420]
	str	w19, [x0, 2444]
	ldr	w19, [x0, 2460]
	str	w18, [x0, 2460]
	ldr	w4, [x0, 3532]
	str	w21, [x0, 3532]
	ldr	w21, [x0, 3536]
	str	w19, [x0, 4296]
	ldr	w19, [x0, 2464]
	str	w4, [x0, 2416]
	mov	x4, x1
	str	w22, [x0, 3536]
	str	w21, [x0, 2420]
	str	w20, [x0, 5072]
	ldr	w18, [x1, 204]
	str	w19, [x1, 204]
	ldr	w19, [x0, 2468]
	str	w18, [x0, 2464]
	ldr	w18, [x1, 208]
	str	w19, [x1, 208]
	ldr	w9, [x0, 2760]
	ldr	w19, [x0, 2476]
	str	w18, [x0, 2468]
	ldr	w18, [x0, 2472]
	str	w9, [x0, 2472]
	ldr	w7, [x0, 2484]
	ldr	w5, [x0, 5832]
	str	w18, [x0, 2760]
	ldr	w18, [x0, 2764]
	str	w19, [x0, 2764]
	ldr	w19, [x0, 2480]
	str	w5, [x0, 2484]
	ldr	w17, [x0, 3336]
	str	w18, [x0, 2476]
	ldr	w18, [x0, 2768]
	str	w19, [x0, 2768]
	ldr	w19, [x0, 2488]
	str	w7, [x0, 5832]
	str	w18, [x0, 2480]
	ldr	w18, [x0, 5836]
	str	w19, [x0, 5836]
	ldr	w19, [x0, 2492]
	str	w18, [x0, 2488]
	ldr	w18, [x0, 5840]
	str	w19, [x0, 5840]
	str	w18, [x0, 2492]
	ldr	w18, [x0, 2508]
	str	w17, [x0, 2508]
	str	w18, [x0, 3336]
	ldr	w18, [x0, 2512]
	ldr	w17, [x0, 3340]
	ldr	w15, [x0, 4872]
	str	w18, [x0, 3340]
	ldr	w16, [x0, 2532]
	str	w17, [x0, 2512]
	ldr	w14, [x0, 4104]
	str	w15, [x0, 2532]
	ldr	w15, [x0, 4876]
	str	w16, [x0, 4872]
	ldr	w16, [x0, 2536]
	ldr	w18, [x0, 2516]
	str	w15, [x0, 2536]
	ldr	w15, [x0, 4880]
	str	w16, [x0, 4876]
	ldr	w16, [x0, 2540]
	ldr	w17, [x0, 3344]
	str	w15, [x0, 2540]
	ldr	w15, [x0, 2556]
	str	w14, [x0, 2556]
	str	w18, [x0, 3344]
	str	w17, [x0, 2516]
	str	w16, [x0, 4880]
	str	w15, [x0, 4104]
	ldr	w15, [x0, 2560]
	ldr	w14, [x1, 12]
	str	w15, [x1, 12]
	ldr	w15, [x0, 2564]
	str	w14, [x0, 2560]
	ldr	w14, [x1, 16]
	str	w15, [x1, 16]
	ldr	w1, [x0, 2580]
	str	w14, [x0, 2564]
	ldr	w13, [x0, 5640]
	ldr	w14, [x0, 2584]
	str	w1, [x0, 5640]
	ldr	w1, [x0, 5644]
	str	w13, [x0, 2580]
	ldr	w12, [x0, 2604]
	str	w14, [x0, 5644]
	ldr	w14, [x0, 2588]
	str	w1, [x0, 2584]
	ldr	w1, [x0, 5648]
	ldr	w10, [x0, 2628]
	str	w14, [x0, 5648]
	str	w1, [x0, 2588]
	ldr	w1, [x0, 3720]
	str	w12, [x0, 3720]
	ldr	w12, [x0, 2608]
	str	w1, [x0, 2604]
	ldr	w1, [x0, 3724]
	str	w12, [x0, 3724]
	ldr	w12, [x0, 2612]
	str	w1, [x0, 2608]
	ldr	w1, [x0, 3728]
	str	w12, [x0, 3728]
	str	w1, [x0, 2612]
	ldr	w1, [x2, 136]
	str	w10, [x2, 136]
	ldr	w2, [x0, 2632]
	str	w1, [x0, 2628]
	ldr	w1, [x24, 4]
	str	w2, [x24, 4]
	ldr	w2, [x0, 2636]
	str	w1, [x0, 2632]
	ldr	w1, [x24, 8]
	str	w2, [x24, 8]
	ldr	w8, [x0, 2652]
	ldr	w23, [x0, 2656]
	str	w1, [x0, 2636]
	ldr	w1, [x0, 4488]
	str	w8, [x0, 4488]
	str	w1, [x0, 2652]
	ldr	w1, [x4, 396]
	str	w23, [x4, 396]
	ldr	w23, [x0, 2660]
	str	w1, [x0, 2656]
	ldr	w1, [x4, 400]
	str	w23, [x4, 400]
	ldr	w22, [x0, 2664]
	ldr	w6, [x0, 6024]
	str	w1, [x0, 2660]
	ldr	w1, [x0, 2952]
	str	w22, [x0, 2952]
	ldr	w22, [x0, 2668]
	ldr	w23, [x0, 6028]
	str	w1, [x0, 2664]
	ldr	w1, [x0, 2956]
	str	w22, [x0, 2956]
	ldr	w22, [x0, 2672]
	str	w1, [x0, 2668]
	ldr	w1, [x0, 2960]
	str	w22, [x0, 2960]
	ldr	w22, [x0, 2676]
	str	w6, [x0, 2676]
	str	w1, [x0, 2672]
	str	w22, [x0, 6024]
	ldr	w24, [x0, 2680]
	str	w23, [x0, 2680]
	ldr	w23, [x0, 6032]
	ldr	w21, [x0, 2700]
	str	w24, [x0, 6028]
	ldr	w24, [x0, 2684]
	str	w23, [x0, 2684]
	ldr	w23, [x0, 3240]
	str	w21, [x0, 3240]
	ldr	w21, [x0, 3244]
	str	w24, [x0, 6032]
	ldr	w24, [x0, 2728]
	str	w23, [x0, 2700]
	ldr	w23, [x0, 2704]
	str	w21, [x0, 2704]
	ldr	w21, [x0, 3248]
	ldr	w7, [x0, 2724]
	str	w23, [x0, 3244]
	ldr	w23, [x0, 2708]
	str	w21, [x0, 2708]
	ldr	w5, [x0, 4776]
	str	w7, [x0, 4776]
	str	w23, [x0, 3248]
	ldr	w23, [x0, 4780]
	str	w24, [x0, 4780]
	ldr	w24, [x0, 2732]
	str	w5, [x0, 2724]
	str	w23, [x0, 2728]
	ldr	w23, [x0, 4784]
	str	w24, [x0, 4784]
	str	w23, [x0, 2732]
	ldr	w23, [x0, 2748]
	ldr	w20, [x0, 4008]
	ldr	w24, [x0, 2756]
	str	w23, [x0, 4008]
	ldr	w23, [x0, 2752]
	str	w20, [x0, 2748]
	ldr	w20, [x0, 4012]
	ldr	w19, [x0, 2772]
	str	w23, [x0, 4012]
	ldr	w23, [x0, 4016]
	str	w20, [x0, 2752]
	str	w24, [x0, 4016]
	str	w23, [x0, 2756]
	ldr	w18, [x3, 424]
	str	w19, [x3, 424]
	ldr	w19, [x0, 2776]
	str	w18, [x0, 2772]
	ldr	w18, [x3, 428]
	str	w19, [x3, 428]
	ldr	w19, [x0, 2780]
	str	w18, [x0, 2776]
	ldr	w18, [x3, 432]
	str	w19, [x3, 432]
	ldr	w17, [x0, 3624]
	str	w18, [x0, 2780]
	ldr	w18, [x0, 2796]
	str	w17, [x0, 2796]
	ldr	w17, [x0, 3628]
	str	w18, [x0, 3624]
	ldr	w18, [x0, 2800]
	str	w17, [x0, 2800]
	str	w18, [x0, 3628]
	ldr	w18, [x0, 2804]
	ldr	w17, [x0, 3632]
	ldr	w15, [x0, 2820]
	str	w18, [x0, 3632]
	str	w17, [x0, 2804]
	ldr	w13, [x3, 40]
	str	w15, [x3, 40]
	ldr	w24, [x0, 2824]
	str	w13, [x0, 2820]
	ldr	w23, [x3, 44]
	str	w24, [x3, 44]
	ldr	w24, [x0, 2828]
	str	w23, [x0, 2824]
	ldr	w23, [x3, 48]
	str	w24, [x3, 48]
	ldr	w14, [x0, 2844]
	ldr	w12, [x0, 4392]
	str	w23, [x0, 2828]
	str	w14, [x0, 4392]
	ldr	w14, [x0, 2848]
	str	w12, [x0, 2844]
	ldr	w12, [x4, 300]
	str	w14, [x4, 300]
	ldr	w14, [x0, 2852]
	str	w12, [x0, 2848]
	ldr	w12, [x4, 304]
	str	w14, [x4, 304]
	ldr	w2, [x0, 5928]
	str	w12, [x0, 2852]
	ldr	w23, [x0, 5932]
	ldr	w12, [x0, 2868]
	str	w2, [x0, 2868]
	str	w12, [x0, 5928]
	ldr	w24, [x0, 2872]
	str	w23, [x0, 2872]
	ldr	w23, [x0, 5936]
	ldr	w10, [x0, 2892]
	str	w24, [x0, 5932]
	ldr	w24, [x0, 2876]
	str	w23, [x0, 2876]
	ldr	w23, [x0, 3432]
	str	w10, [x0, 3432]
	ldr	w10, [x0, 3436]
	str	w24, [x0, 5936]
	ldr	w24, [x0, 2920]
	str	w23, [x0, 2892]
	ldr	w23, [x0, 2896]
	str	w10, [x0, 2896]
	ldr	w10, [x0, 3440]
	ldr	w9, [x0, 2916]
	str	w23, [x0, 3436]
	ldr	w23, [x0, 2900]
	str	w10, [x0, 2900]
	ldr	w8, [x0, 4968]
	str	w9, [x0, 4968]
	str	w23, [x0, 3440]
	ldr	w23, [x0, 4972]
	str	w24, [x0, 4972]
	ldr	w24, [x0, 2924]
	str	w8, [x0, 2916]
	str	w23, [x0, 2920]
	ldr	w23, [x0, 4976]
	str	w24, [x0, 4976]
	str	w23, [x0, 2924]
	ldr	w23, [x0, 2940]
	ldr	w1, [x0, 4200]
	str	w23, [x0, 4200]
	ldr	w23, [x0, 2944]
	str	w1, [x0, 2940]
	ldr	w1, [x4, 108]
	str	w23, [x4, 108]
	ldr	w24, [x0, 2948]
	str	w1, [x0, 2944]
	ldr	w23, [x4, 112]
	str	w24, [x4, 112]
	ldr	w24, [x0, 2968]
	str	w23, [x0, 2948]
	ldr	w23, [x0, 5740]
	ldr	w21, [x0, 3816]
	str	w24, [x0, 5740]
	ldr	w24, [x0, 2972]
	str	w23, [x0, 2968]
	ldr	w23, [x0, 5744]
	ldr	w22, [x0, 2964]
	str	w24, [x0, 5744]
	ldr	w6, [x0, 5736]
	str	w23, [x0, 2972]
	ldr	w23, [x0, 2988]
	str	w21, [x0, 2988]
	ldr	w21, [x0, 3820]
	str	w6, [x0, 2964]
	str	w22, [x0, 5736]
	str	w23, [x0, 3816]
	ldr	w23, [x0, 2992]
	str	w21, [x0, 2992]
	str	w23, [x0, 3820]
	ldr	w23, [x0, 2996]
	ldr	w21, [x0, 3824]
	str	w23, [x0, 3824]
	str	w21, [x0, 2996]
	ldr	w21, [x0, 3012]
	ldr	w5, [x3, 232]
	str	w21, [x3, 232]
	ldr	w24, [x0, 3016]
	str	w5, [x0, 3012]
	ldr	w23, [x3, 236]
	str	w24, [x3, 236]
	ldr	w24, [x0, 3020]
	str	w23, [x0, 3016]
	ldr	w23, [x3, 240]
	str	w24, [x3, 240]
	ldr	w20, [x0, 3036]
	str	w23, [x0, 3020]
	ldr	w19, [x0, 4584]
	str	w20, [x0, 4584]
	ldr	w20, [x0, 3040]
	str	w19, [x0, 3036]
	ldr	w19, [x4, 492]
	str	w20, [x4, 492]
	ldr	w20, [x0, 3044]
	str	w19, [x0, 3040]
	ldr	w19, [x4, 496]
	str	w20, [x4, 496]
	ldr	w16, [x0, 6120]
	str	w19, [x0, 3044]
	ldr	w23, [x0, 6124]
	ldr	w19, [x0, 3060]
	str	w16, [x0, 3060]
	str	w19, [x0, 6120]
	ldr	w24, [x0, 3064]
	str	w23, [x0, 3064]
	ldr	w23, [x0, 6128]
	ldr	w17, [x0, 3108]
	str	w24, [x0, 6124]
	ldr	w24, [x0, 3068]
	str	w23, [x0, 3068]
	ldr	w23, [x0, 4620]
	str	w17, [x0, 4620]
	ldr	w15, [x0, 3852]
	str	w24, [x0, 6128]
	ldr	w24, [x0, 3112]
	str	w23, [x0, 3108]
	ldr	w23, [x0, 4624]
	str	w24, [x0, 4624]
	ldr	w24, [x0, 3116]
	str	w23, [x0, 3112]
	ldr	w23, [x0, 4628]
	str	w24, [x0, 4628]
	str	w23, [x0, 3116]
	ldr	w23, [x0, 3132]
	str	w15, [x0, 3132]
	ldr	w15, [x0, 3856]
	str	w23, [x0, 3852]
	ldr	w23, [x0, 3136]
	str	w15, [x0, 3136]
	ldr	w15, [x0, 3860]
	str	w23, [x0, 3856]
	ldr	w23, [x0, 3140]
	str	w15, [x0, 3140]
	ldr	w15, [x0, 3156]
	str	w23, [x0, 3860]
	ldr	w13, [x3, 268]
	str	w15, [x3, 268]
	ldr	w15, [x0, 3160]
	str	w13, [x0, 3156]
	ldr	w13, [x3, 272]
	str	w15, [x3, 272]
	ldr	w24, [x0, 3164]
	str	w13, [x0, 3160]
	ldr	w23, [x3, 276]
	str	w24, [x3, 276]
	ldr	w11, [x0, 3468]
	ldr	w12, [x0, 3180]
	str	w23, [x0, 3164]
	ldr	w24, [x0, 3208]
	str	w11, [x0, 3180]
	ldr	w11, [x0, 3472]
	str	w12, [x0, 3468]
	ldr	w12, [x0, 3184]
	ldr	w2, [x0, 5004]
	str	w11, [x0, 3184]
	ldr	w11, [x0, 3476]
	str	w12, [x0, 3472]
	ldr	w23, [x0, 5008]
	str	w24, [x0, 5008]
	ldr	w12, [x0, 3188]
	str	w11, [x0, 3188]
	ldr	w11, [x0, 3204]
	str	w2, [x0, 3204]
	mov	x2, x4
	ldr	w24, [x0, 3212]
	str	w23, [x0, 3208]
	str	w12, [x0, 3476]
	str	w11, [x0, 5004]
	ldr	w23, [x0, 5012]
	str	w24, [x0, 5012]
	ldr	w9, [x0, 4236]
	ldr	w24, [x0, 3232]
	str	w23, [x0, 3212]
	ldr	w23, [x0, 3228]
	str	w9, [x0, 3228]
	str	w23, [x0, 4236]
	ldr	w23, [x4, 144]
	str	w24, [x4, 144]
	ldr	w24, [x0, 3236]
	str	w23, [x0, 3232]
	ldr	w23, [x4, 148]
	str	w24, [x4, 148]
	ldr	w24, [x0, 3256]
	ldr	w6, [x0, 4812]
	str	w23, [x0, 3236]
	ldr	w23, [x0, 5776]
	str	w24, [x0, 5776]
	ldr	w24, [x0, 3260]
	ldr	w8, [x0, 3252]
	str	w23, [x0, 3256]
	ldr	w23, [x0, 5780]
	str	w24, [x0, 5780]
	ldr	w1, [x0, 5772]
	str	w8, [x0, 5772]
	str	w23, [x0, 3260]
	ldr	w23, [x0, 3300]
	str	w1, [x0, 3252]
	str	w6, [x0, 3300]
	add	x6, x4, 236
	str	w23, [x0, 4812]
	ldr	w23, [x0, 4816]
	ldr	w24, [x0, 3304]
	ldr	w22, [x0, 3324]
	str	w23, [x0, 3304]
	ldr	w23, [x0, 4820]
	str	w24, [x0, 4816]
	ldr	w24, [x0, 3308]
	str	w23, [x0, 3308]
	ldr	w23, [x0, 4044]
	str	w22, [x0, 4044]
	ldr	w22, [x0, 4048]
	str	w24, [x0, 4820]
	str	w23, [x0, 3324]
	ldr	w23, [x0, 3328]
	str	w22, [x0, 3328]
	ldr	w22, [x0, 4052]
	str	w23, [x0, 4048]
	ldr	w23, [x0, 3332]
	str	w22, [x0, 3332]
	ldr	w22, [x0, 3348]
	str	w23, [x0, 4052]
	ldr	w21, [x3, 460]
	str	w22, [x3, 460]
	ldr	w22, [x0, 3352]
	str	w21, [x0, 3348]
	ldr	w21, [x3, 464]
	str	w22, [x3, 464]
	ldr	w22, [x0, 3356]
	str	w21, [x0, 3352]
	ldr	w21, [x3, 468]
	str	w22, [x3, 468]
	ldr	w20, [x0, 3372]
	str	w21, [x0, 3356]
	add	x21, x4, 44
	ldr	w5, [x0, 3660]
	str	w20, [x0, 3660]
	ldr	w20, [x0, 3376]
	ldr	w23, [x0, 3380]
	str	w5, [x0, 3372]
	ldr	w5, [x0, 3664]
	str	w20, [x0, 3664]
	ldr	w20, [x0, 3668]
	str	w23, [x0, 3668]
	ldr	w19, [x0, 3396]
	str	w5, [x0, 3376]
	str	w20, [x0, 3380]
	ldr	w18, [x3, 76]
	str	w19, [x3, 76]
	ldr	w19, [x0, 3400]
	str	w18, [x0, 3396]
	ldr	w18, [x3, 80]
	str	w19, [x3, 80]
	ldr	w19, [x0, 3404]
	str	w18, [x0, 3400]
	ldr	w18, [x3, 84]
	str	w19, [x3, 84]
	ldr	w17, [x0, 3420]
	ldr	w16, [x0, 4428]
	str	w18, [x0, 3404]
	add	x18, x4, 428
	str	w17, [x0, 4428]
	ldr	w17, [x0, 3424]
	str	w16, [x0, 3420]
	ldr	w16, [x4, 336]
	str	w17, [x4, 336]
	ldr	w17, [x0, 3428]
	str	w16, [x0, 3424]
	ldr	w16, [x4, 340]
	str	w17, [x4, 340]
	ldr	w14, [x0, 5964]
	str	w16, [x0, 3428]
	ldr	w15, [x0, 3444]
	ldr	w23, [x0, 3448]
	str	w14, [x0, 3444]
	ldr	w14, [x0, 5968]
	str	w15, [x0, 5964]
	ldr	w13, [x0, 4716]
	str	w23, [x0, 5968]
	ldr	w23, [x0, 3452]
	str	w14, [x0, 3448]
	ldr	w14, [x0, 5972]
	ldr	w12, [x0, 3948]
	str	w23, [x0, 5972]
	ldr	w23, [x0, 3496]
	str	w14, [x0, 3452]
	ldr	w14, [x0, 3492]
	str	w13, [x0, 3492]
	str	w14, [x0, 4716]
	ldr	w14, [x0, 4720]
	str	w23, [x0, 4720]
	ldr	w23, [x0, 3500]
	str	w14, [x0, 3496]
	ldr	w14, [x0, 4724]
	str	w23, [x0, 4724]
	str	w14, [x0, 3500]
	ldr	w14, [x0, 3516]
	str	w12, [x0, 3516]
	str	w14, [x0, 3948]
	ldr	w14, [x0, 3520]
	ldr	w12, [x0, 3952]
	ldr	w11, [x0, 3540]
	str	w14, [x0, 3952]
	ldr	w14, [x0, 3524]
	str	w12, [x0, 3520]
	ldr	w12, [x0, 3956]
	str	w14, [x0, 3956]
	str	w12, [x0, 3524]
	ldr	w10, [x3, 364]
	str	w11, [x3, 364]
	ldr	w11, [x0, 3544]
	str	w10, [x0, 3540]
	ldr	w10, [x3, 368]
	str	w11, [x3, 368]
	ldr	w11, [x0, 3548]
	str	w10, [x0, 3544]
	ldr	w10, [x3, 372]
	str	w11, [x3, 372]
	add	x11, x4, 188
	ldr	w23, [x0, 3592]
	ldr	w4, [x0, 5104]
	str	w10, [x0, 3548]
	ldr	w9, [x0, 5100]
	str	w23, [x0, 5104]
	ldr	w10, [x0, 3588]
	str	w4, [x0, 3592]
	ldr	w23, [x0, 3596]
	str	w9, [x0, 3588]
	ldr	w4, [x0, 5108]
	str	w10, [x0, 5100]
	ldr	w8, [x0, 3612]
	str	w23, [x0, 5108]
	str	w4, [x0, 3596]
	ldr	w4, [x0, 4332]
	str	w8, [x0, 4332]
	ldr	w8, [x0, 3616]
	str	w4, [x0, 3612]
	ldr	w4, [x6, 4]
	str	w8, [x6, 4]
	ldr	w23, [x0, 3620]
	str	w4, [x0, 3616]
	ldr	w4, [x6, 8]
	str	w23, [x6, 8]
	ldr	w1, [x0, 5868]
	ldr	w23, [x0, 3640]
	str	w4, [x0, 3620]
	ldr	w4, [x0, 3636]
	str	w1, [x0, 3636]
	mov	x1, x3
	ldr	w7, [x0, 4908]
	str	w4, [x0, 5868]
	ldr	w4, [x0, 5872]
	str	w23, [x0, 5872]
	ldr	w23, [x0, 3644]
	str	w4, [x0, 3640]
	ldr	w4, [x0, 5876]
	str	w23, [x0, 5876]
	ldr	w23, [x0, 3688]
	str	w4, [x0, 3644]
	ldr	w4, [x0, 3684]
	str	w7, [x0, 3684]
	str	w4, [x0, 4908]
	ldr	w4, [x0, 4912]
	str	w23, [x0, 4912]
	ldr	w23, [x0, 3692]
	str	w4, [x0, 3688]
	ldr	w4, [x0, 4916]
	str	w23, [x0, 4916]
	ldr	w23, [x0, 3708]
	ldr	w24, [x0, 3712]
	str	w4, [x0, 3692]
	ldr	w4, [x0, 4140]
	str	w23, [x0, 4140]
	str	w4, [x0, 3708]
	ldr	w23, [x21, 4]
	str	w24, [x21, 4]
	ldr	w24, [x0, 3716]
	str	w23, [x0, 3712]
	ldr	w23, [x21, 8]
	str	w24, [x21, 8]
	ldr	w24, [x0, 3736]
	ldr	w21, [x0, 3732]
	str	w23, [x0, 3716]
	ldr	w23, [x0, 5680]
	str	w24, [x0, 5680]
	ldr	w5, [x0, 5676]
	str	w21, [x0, 5676]
	ldr	w24, [x0, 3740]
	str	w23, [x0, 3736]
	ldr	w23, [x0, 5684]
	str	w5, [x0, 3732]
	str	w24, [x0, 5684]
	str	w23, [x0, 3740]
	ldr	w23, [x0, 3780]
	ldr	w22, [x3, 172]
	str	w23, [x3, 172]
	ldr	w23, [x0, 3784]
	str	w22, [x0, 3780]
	ldr	w22, [x3, 176]
	str	w23, [x3, 176]
	ldr	w23, [x0, 3788]
	str	w22, [x0, 3784]
	ldr	w22, [x3, 180]
	str	w23, [x3, 180]
	ldr	w20, [x0, 4524]
	str	w22, [x0, 3788]
	ldr	w19, [x0, 3804]
	str	w20, [x0, 3804]
	ldr	w20, [x0, 3808]
	str	w19, [x0, 4524]
	ldr	w19, [x18, 4]
	str	w20, [x18, 4]
	ldr	w20, [x0, 3812]
	str	w19, [x0, 3808]
	ldr	w19, [x18, 8]
	str	w20, [x18, 8]
	ldr	w17, [x0, 3828]
	str	w19, [x0, 3812]
	ldr	w18, [x0, 6060]
	ldr	w23, [x0, 3832]
	str	w17, [x0, 6060]
	ldr	w17, [x0, 6064]
	str	w18, [x0, 3828]
	str	w23, [x0, 6064]
	ldr	w23, [x0, 3836]
	str	w17, [x0, 3832]
	ldr	w17, [x0, 6068]
	str	w23, [x0, 6068]
	str	w17, [x0, 3836]
	ldr	w17, [x0, 3876]
	ldr	w16, [x0, 4668]
	ldr	w23, [x0, 3880]
	str	w17, [x0, 4668]
	ldr	w17, [x0, 4672]
	str	w16, [x0, 3876]
	str	w23, [x0, 4672]
	ldr	w23, [x0, 3884]
	str	w17, [x0, 3880]
	ldr	w17, [x0, 4676]
	str	w23, [x0, 4676]
	str	w17, [x0, 3884]
	ldr	w17, [x0, 3924]
	ldr	w15, [x3, 316]
	str	w17, [x3, 316]
	ldr	w17, [x0, 3928]
	str	w15, [x0, 3924]
	ldr	w15, [x3, 320]
	str	w17, [x3, 320]
	ldr	w17, [x0, 3932]
	str	w15, [x0, 3928]
	ldr	w15, [x3, 324]
	str	w17, [x3, 324]
	ldr	w13, [x0, 3972]
	str	w15, [x0, 3932]
	ldr	w23, [x0, 3976]
	ldr	w14, [x0, 5052]
	str	w13, [x0, 5052]
	ldr	w13, [x0, 5056]
	str	w23, [x0, 5056]
	ldr	w23, [x0, 3980]
	str	w14, [x0, 3972]
	str	w13, [x0, 3976]
	ldr	w13, [x0, 5060]
	str	w23, [x0, 5060]
	ldr	w12, [x0, 4284]
	ldr	w23, [x0, 4000]
	str	w13, [x0, 3980]
	ldr	w13, [x0, 3996]
	str	w12, [x0, 3996]
	str	w13, [x0, 4284]
	ldr	w12, [x11, 4]
	str	w23, [x11, 4]
	ldr	w23, [x0, 4004]
	str	w12, [x0, 4000]
	ldr	w12, [x11, 8]
	str	w23, [x11, 8]
	ldr	w10, [x0, 4020]
	ldr	w11, [x0, 5820]
	str	w12, [x0, 4004]
	ldr	w12, [x0, 4024]
	str	w10, [x0, 5820]
	ldr	w10, [x0, 5824]
	str	w11, [x0, 4020]
	ldr	w9, [x0, 4860]
	str	w12, [x0, 5824]
	ldr	w12, [x0, 4028]
	str	w10, [x0, 4024]
	ldr	w10, [x0, 5828]
	str	w12, [x0, 5828]
	str	w10, [x0, 4028]
	ldr	w10, [x0, 4068]
	str	w9, [x0, 4068]
	ldr	w9, [x0, 4072]
	str	w10, [x0, 4860]
	ldr	w3, [x3, -256]
	str	w9, [x0, 4864]
	ldr	w9, [x0, 4076]
	ldr	w8, [x0, 4116]
	str	w3, [x0, 4072]
	ldr	w3, [x0, 4868]
	str	w9, [x0, 4868]
	str	w3, [x0, 4076]
	ldr	w3, [x1, 508]
	str	w8, [x1, 508]
	str	w3, [x0, 4116]
	ldr	w8, [x2, 24]
	ldr	w3, [x1, 512]
	str	w8, [x1, 512]
	ldr	w8, [x2, 28]
	str	w3, [x2, 24]
	ldr	w3, [x1, 516]
	str	w8, [x1, 516]
	str	w3, [x2, 28]
	ldr	w6, [x0, 4164]
	ldr	w3, [x1, 124]
	str	w6, [x1, 124]
	str	w3, [x0, 4164]
	ldr	w6, [x2, 72]
	ldr	w3, [x1, 128]
	str	w6, [x1, 128]
	ldr	w6, [x2, 76]
	str	w3, [x2, 72]
	ldr	w3, [x1, 132]
	str	w6, [x1, 132]
	str	w3, [x2, 76]
	ldr	w4, [x0, 4188]
	ldr	w3, [x0, 4476]
	str	w4, [x0, 4476]
	str	w3, [x0, 4188]
	ldr	w3, [x2, 384]
	ldp	w4, w23, [x2, 96]
	str	w3, [x2, 96]
	ldr	w3, [x2, 388]
	str	w4, [x2, 384]
	add	x4, x1, 244
	str	w23, [x2, 388]
	str	w3, [x2, 100]
	ldr	w3, [x0, 4212]
	ldr	w21, [x0, 6012]
	str	w3, [x0, 6012]
	ldr	w3, [x0, 6016]
	str	w21, [x0, 4212]
	mov	x21, x1
	ldr	w22, [x2, 120]
	str	w22, [x0, 6016]
	ldr	w22, [x2, 124]
	str	w3, [x2, 120]
	ldr	w3, [x0, 6020]
	str	w22, [x0, 6020]
	str	w3, [x2, 124]
	ldr	w20, [x0, 4260]
	ldr	w3, [x0, 4764]
	str	w20, [x0, 4764]
	ldr	w20, [x0, 4768]
	str	w3, [x0, 4260]
	ldr	w22, [x2, 168]
	str	w22, [x0, 4768]
	ldr	w22, [x2, 172]
	str	w20, [x2, 168]
	ldr	w20, [x0, 4772]
	str	w22, [x0, 4772]
	str	w20, [x2, 172]
	ldr	w20, [x0, 4308]
	ldr	w19, [x1, 412]
	str	w20, [x1, 412]
	str	w19, [x0, 4308]
	ldr	w20, [x2, 216]
	ldr	w19, [x1, 416]
	str	w20, [x1, 416]
	ldr	w20, [x2, 220]
	str	w19, [x2, 216]
	ldr	w19, [x1, 420]
	str	w20, [x1, 420]
	str	w19, [x2, 220]
	ldr	w19, [x0, 4356]
	ldr	w18, [x1, 28]
	str	w19, [x1, 28]
	str	w18, [x0, 4356]
	ldr	w19, [x2, 264]
	ldr	w18, [x1, 32]
	str	w19, [x1, 32]
	ldr	w19, [x2, 268]
	str	w18, [x2, 264]
	ldr	w18, [x1, 36]
	str	w19, [x1, 36]
	str	w18, [x2, 268]
	ldr	w18, [x0, 4404]
	ldr	w17, [x0, 5916]
	ldr	w16, [x0, 5920]
	str	w18, [x0, 5916]
	str	w17, [x0, 4404]
	ldr	w17, [x2, 312]
	str	w17, [x0, 5920]
	ldr	w17, [x2, 316]
	str	w16, [x2, 312]
	ldr	w16, [x0, 5924]
	str	w17, [x0, 5924]
	str	w16, [x2, 316]
	ldr	w16, [x0, 4452]
	ldr	w17, [x0, 4956]
	ldr	w15, [x0, 4960]
	str	w16, [x0, 4956]
	str	w17, [x0, 4452]
	ldr	w16, [x2, 360]
	str	w16, [x0, 4960]
	ldr	w16, [x2, 364]
	str	w15, [x2, 360]
	ldr	w15, [x0, 4964]
	str	w16, [x0, 4964]
	str	w15, [x2, 364]
	ldr	w15, [x0, 5724]
	ldr	w16, [x0, 4500]
	ldr	w14, [x0, 5728]
	str	w15, [x0, 4500]
	str	w16, [x0, 5724]
	ldr	w15, [x2, 408]
	str	w15, [x0, 5728]
	ldr	w15, [x2, 412]
	str	w14, [x2, 408]
	ldr	w14, [x0, 5732]
	str	w15, [x0, 5732]
	str	w14, [x2, 412]
	ldr	w14, [x0, 4548]
	ldr	w13, [x1, 220]
	str	w14, [x1, 220]
	str	w13, [x0, 4548]
	ldr	w14, [x2, 456]
	ldr	w13, [x1, 224]
	str	w14, [x1, 224]
	ldr	w14, [x2, 460]
	str	w13, [x2, 456]
	ldr	w13, [x1, 228]
	str	w14, [x1, 228]
	str	w13, [x2, 460]
	ldr	w13, [x0, 4596]
	ldr	w12, [x0, 6108]
	ldr	w11, [x0, 6112]
	str	w13, [x0, 6108]
	str	w12, [x0, 4596]
	ldr	w12, [x2, 504]
	str	w12, [x0, 6112]
	ldr	w12, [x2, 508]
	str	w11, [x2, 504]
	ldr	w11, [x0, 6116]
	str	w12, [x0, 6116]
	str	w11, [x2, 508]
	ldr	w11, [x0, 4692]
	ldr	w2, [x1, 292]
	str	w11, [x1, 292]
	ldr	w11, [x0, 4696]
	str	w2, [x0, 4692]
	ldr	w2, [x1, 296]
	str	w11, [x1, 296]
	ldr	w11, [x0, 4700]
	str	w2, [x0, 4696]
	ldr	w2, [x1, 300]
	str	w11, [x1, 300]
	ldr	w10, [x0, 4740]
	str	w2, [x0, 4700]
	ldr	w11, [x0, 5032]
	ldr	w2, [x0, 5028]
	str	w10, [x0, 5028]
	ldr	w10, [x0, 4748]
	ldr	w13, [x0, 4788]
	str	w2, [x0, 4740]
	ldr	w2, [x0, 4744]
	str	w11, [x0, 4744]
	ldr	w11, [x0, 5036]
	str	w10, [x0, 5036]
	ldr	w10, [x0, 5796]
	str	w2, [x0, 5032]
	ldr	w12, [x0, 4792]
	str	w11, [x0, 4748]
	ldr	w2, [x0, 4796]
	str	w13, [x0, 5796]
	ldr	w11, [x0, 5804]
	str	w10, [x0, 4788]
	ldr	w13, [x0, 5800]
	str	w12, [x0, 5800]
	ldr	w10, [x0, 4884]
	str	w11, [x0, 4796]
	str	w2, [x0, 5804]
	str	w13, [x0, 4792]
	ldr	w2, [x1, 484]
	str	w10, [x1, 484]
	ldr	w10, [x0, 4888]
	str	w2, [x0, 4884]
	ldr	w2, [x1, 488]
	str	w10, [x1, 488]
	ldr	w10, [x0, 4892]
	str	w2, [x0, 4888]
	ldr	w2, [x1, 492]
	str	w10, [x1, 492]
	ldr	w9, [x0, 4932]
	str	w2, [x0, 4892]
	ldr	w2, [x1, 100]
	str	w9, [x1, 100]
	ldr	w9, [x0, 4936]
	str	w2, [x0, 4932]
	ldr	w2, [x1, 104]
	str	w9, [x1, 104]
	ldr	w9, [x0, 4940]
	str	w2, [x0, 4936]
	ldr	w2, [x1, 108]
	str	w9, [x1, 108]
	ldr	w10, [x0, 4980]
	ldr	w8, [x0, 5988]
	str	w2, [x0, 4940]
	ldr	w2, [x0, 4984]
	str	w10, [x0, 5988]
	ldr	w9, [x0, 4988]
	str	w8, [x0, 4980]
	ldr	w10, [x0, 5992]
	str	w2, [x0, 5992]
	ldr	w2, [x0, 5996]
	str	w9, [x0, 5996]
	ldr	w8, [x0, 5076]
	str	w10, [x0, 4984]
	str	w2, [x0, 4988]
	ldr	w2, [x1, 388]
	str	w8, [x1, 388]
	ldr	w8, [x0, 5080]
	str	w2, [x0, 5076]
	ldr	w2, [x1, 392]
	str	w8, [x1, 392]
	ldr	w8, [x0, 5084]
	str	w2, [x0, 5080]
	ldr	w2, [x1, 396]
	str	w8, [x1, 396]
	str	w2, [x0, 5084]
	ldr	w7, [x1, 52]
	ldr	w2, [x0, 5892]
	str	w7, [x0, 5892]
	ldr	w7, [x1, 56]
	str	w2, [x1, 52]
	ldr	w2, [x0, 5896]
	str	w7, [x0, 5896]
	ldr	w7, [x1, 60]
	str	w2, [x1, 56]
	ldr	w2, [x0, 5900]
	str	w7, [x0, 5900]
	ldr	w6, [x1, 148]
	str	w2, [x1, 60]
	ldr	w2, [x0, 5700]
	str	w6, [x0, 5700]
	ldr	w6, [x1, 152]
	str	w2, [x1, 148]
	ldr	w2, [x0, 5704]
	str	w6, [x0, 5704]
	ldr	w6, [x1, 156]
	str	w2, [x1, 152]
	ldr	w2, [x0, 5708]
	str	w6, [x0, 5708]
	ldr	w5, [x1, 244]
	str	w2, [x1, 156]
	ldr	w2, [x0, 6084]
	str	w5, [x0, 6084]
	str	w2, [x1, 244]
	ldr	w2, [x4, 4]
	ldr	w1, [x0, 6088]
	str	w2, [x0, 6088]
	ldr	w2, [x4, 8]
	str	w1, [x4, 4]
	ldr	w1, [x0, 6092]
	str	w2, [x0, 6092]
	str	w1, [x4, 8]
	ldr	w2, [x21, 436]
	ldr	w1, [x0, 5844]
	str	w2, [x0, 5844]
	ldr	w2, [x21, 440]
	str	w1, [x21, 436]
	ldr	w1, [x0, 5848]
	str	w2, [x0, 5848]
	ldr	w2, [x21, 444]
	str	w1, [x21, 440]
	ldr	w1, [x0, 5852]
	str	w2, [x0, 5852]
	str	w1, [x21, 444]
	ldr	w1, [x0, 5752]
	ldr	w2, [x0, 5748]
	ldr	w4, [x0, 6036]
	ldr	w3, [x0, 5756]
	str	w2, [x0, 6036]
	ldr	w2, [x0, 6040]
	str	w1, [x0, 6040]
	ldr	w1, [x0, 6044]
	str	w4, [x0, 5748]
	str	w3, [x0, 6044]
	str	w2, [x0, 5752]
	ldp	x19, x20, [sp, 16]
	str	w1, [x0, 5756]
	ldp	x21, x22, [sp, 32]
	ldp	x23, x24, [sp, 48]
	ldp	x29, x30, [sp], 64
	.cfi_restore 30
	.cfi_restore 29
	.cfi_restore 23
	.cfi_restore 24
	.cfi_restore 21
	.cfi_restore 22
	.cfi_restore 19
	.cfi_restore 20
	.cfi_def_cfa_offset 0
	ret
	.cfi_endproc
